

Microchip MPLAB XC8 Assembler V2.40 build 20220703182018 
                                                                                               Mon Oct 24 22:09:54 2022

Microchip MPLAB XC8 C Compiler v2.40 (Free license) build 20220703182018 Og1 
     1                           	processor	16F887
     2                           	pagewidth 120
     3                           	opt	flic
     4                           	psect	cinit,global,class=CODE,merge=1,delta=2
     5                           	psect	bssCOMMON,global,class=COMMON,space=1,delta=1,noexec
     6                           	psect	bssBANK0,global,class=BANK0,space=1,delta=1,noexec
     7                           	psect	bssBANK1,global,class=BANK1,space=1,delta=1,noexec
     8                           	psect	cstackCOMMON,global,class=COMMON,space=1,delta=1,noexec
     9                           	psect	cstackBANK0,global,class=BANK0,space=1,delta=1,noexec
    10                           	psect	maintext,global,class=CODE,split=1,delta=2
    11                           	psect	text1,local,class=CODE,merge=1,delta=2
    12                           	psect	text2,local,class=CODE,merge=1,delta=2
    13                           	psect	text3,local,class=CODE,merge=1,delta=2
    14                           	psect	text4,local,class=CODE,merge=1,delta=2
    15                           	psect	text5,local,class=CODE,merge=1,delta=2
    16                           	psect	text6,local,class=CODE,merge=1,delta=2
    17                           	psect	text7,local,class=CODE,merge=1,delta=2
    18                           	psect	text8,local,class=CODE,merge=1,delta=2,group=1
    19                           	psect	text9,local,class=CODE,merge=1,delta=2,group=1
    20                           	psect	text10,local,class=CODE,merge=1,delta=2,group=1
    21                           	psect	text11,local,class=CODE,merge=1,delta=2,group=1
    22                           	psect	text12,local,class=CODE,merge=1,delta=2,group=1
    23                           	psect	text13,local,class=CODE,merge=1,delta=2
    24                           	psect	intentry,global,class=CODE,delta=2
    25                           	psect	idloc,global,abs,ovrld,class=IDLOC,space=5,delta=2,noexec
    26                           	psect	config,global,abs,ovrld,class=CONFIG,space=4,delta=2,noexec
    27                           	dabs	1,0x7E,2
    28     0000                     
    29                           ; Version 2.40
    30                           ; Generated 17/11/2021 GMT
    31                           ; 
    32                           ; Copyright © 2021, Microchip Technology Inc. and its subsidiaries ("Microchip")
    33                           ; All rights reserved.
    34                           ; 
    35                           ; This software is developed by Microchip Technology Inc. and its subsidiaries ("Microch
      +                          ip").
    36                           ; 
    37                           ; Redistribution and use in source and binary forms, with or without modification, are
    38                           ; permitted provided that the following conditions are met:
    39                           ; 
    40                           ;     1. Redistributions of source code must retain the above copyright notice, this lis
      +                          t of
    41                           ;        conditions and the following disclaimer.
    42                           ; 
    43                           ;     2. Redistributions in binary form must reproduce the above copyright notice, this 
      +                          list
    44                           ;        of conditions and the following disclaimer in the documentation and/or other
    45                           ;        materials provided with the distribution. Publication is not required when
    46                           ;        this file is used in an embedded application.
    47                           ; 
    48                           ;     3. Microchip's name may not be used to endorse or promote products derived from th
      +                          is
    49                           ;        software without specific prior written permission.
    50                           ; 
    51                           ; THIS SOFTWARE IS PROVIDED BY MICROCHIP "AS IS" AND ANY EXPRESS OR IMPLIED WARRANTIES,
    52                           ; INCLUDING, BUT NOT LIMITED TO, THE IMPLIED WARRANTIES OF MERCHANTABILITY AND FITNESS F
      +                          OR
    53                           ; PURPOSE ARE DISCLAIMED.  IN NO EVENT SHALL MICROCHIP BE LIABLE FOR ANY DIRECT, INDIREC
      +                          T,
    54                           ; INCIDENTAL, SPECIAL, EXEMPLARY, OR CONSEQUENTIAL DAMAGES (INCLUDING BUT NOT LIMITED TO
    55                           ; PROCUREMENT OF SUBSTITUTE GOODS OR SERVICES; LOSS OF USE, DATA OR PROFITS; OR BUSINESS
    56                           ; INTERRUPTION) HOWSOEVER CAUSED AND ON ANY THEORY OF LIABILITY, WHETHER IN CONTRACT, ST
      +                          RICT
    57                           ; LIABILITY, OR TORT (INCLUDING NEGLIGENCE OR OTHERWISE) ARISING IN ANY WAY OUT OF THE U
      +                          SE OF
    58                           ; THIS SOFTWARE, EVEN IF ADVISED OF THE POSSIBILITY OF SUCH DAMAGE.
    59                           ; 
    60                           ; 
    61                           ; Code-generator required, PIC16F887 Definitions
    62                           ; 
    63                           ; SFR Addresses
    64     0000                     	;# 
    65     0001                     	;# 
    66     0002                     	;# 
    67     0003                     	;# 
    68     0004                     	;# 
    69     0005                     	;# 
    70     0006                     	;# 
    71     0007                     	;# 
    72     0008                     	;# 
    73     0009                     	;# 
    74     000A                     	;# 
    75     000B                     	;# 
    76     000C                     	;# 
    77     000D                     	;# 
    78     000E                     	;# 
    79     000E                     	;# 
    80     000F                     	;# 
    81     0010                     	;# 
    82     0011                     	;# 
    83     0012                     	;# 
    84     0013                     	;# 
    85     0014                     	;# 
    86     0015                     	;# 
    87     0015                     	;# 
    88     0016                     	;# 
    89     0017                     	;# 
    90     0018                     	;# 
    91     0019                     	;# 
    92     001A                     	;# 
    93     001B                     	;# 
    94     001B                     	;# 
    95     001C                     	;# 
    96     001D                     	;# 
    97     001E                     	;# 
    98     001F                     	;# 
    99     0081                     	;# 
   100     0085                     	;# 
   101     0086                     	;# 
   102     0087                     	;# 
   103     0088                     	;# 
   104     0089                     	;# 
   105     008C                     	;# 
   106     008D                     	;# 
   107     008E                     	;# 
   108     008F                     	;# 
   109     0090                     	;# 
   110     0091                     	;# 
   111     0092                     	;# 
   112     0093                     	;# 
   113     0093                     	;# 
   114     0093                     	;# 
   115     0094                     	;# 
   116     0095                     	;# 
   117     0096                     	;# 
   118     0097                     	;# 
   119     0098                     	;# 
   120     0099                     	;# 
   121     009A                     	;# 
   122     009B                     	;# 
   123     009C                     	;# 
   124     009D                     	;# 
   125     009E                     	;# 
   126     009F                     	;# 
   127     0105                     	;# 
   128     0107                     	;# 
   129     0108                     	;# 
   130     0109                     	;# 
   131     010C                     	;# 
   132     010C                     	;# 
   133     010D                     	;# 
   134     010E                     	;# 
   135     010F                     	;# 
   136     0185                     	;# 
   137     0187                     	;# 
   138     0188                     	;# 
   139     0189                     	;# 
   140     018C                     	;# 
   141     018D                     	;# 
   142     0000                     	;# 
   143     0001                     	;# 
   144     0002                     	;# 
   145     0003                     	;# 
   146     0004                     	;# 
   147     0005                     	;# 
   148     0006                     	;# 
   149     0007                     	;# 
   150     0008                     	;# 
   151     0009                     	;# 
   152     000A                     	;# 
   153     000B                     	;# 
   154     000C                     	;# 
   155     000D                     	;# 
   156     000E                     	;# 
   157     000E                     	;# 
   158     000F                     	;# 
   159     0010                     	;# 
   160     0011                     	;# 
   161     0012                     	;# 
   162     0013                     	;# 
   163     0014                     	;# 
   164     0015                     	;# 
   165     0015                     	;# 
   166     0016                     	;# 
   167     0017                     	;# 
   168     0018                     	;# 
   169     0019                     	;# 
   170     001A                     	;# 
   171     001B                     	;# 
   172     001B                     	;# 
   173     001C                     	;# 
   174     001D                     	;# 
   175     001E                     	;# 
   176     001F                     	;# 
   177     0081                     	;# 
   178     0085                     	;# 
   179     0086                     	;# 
   180     0087                     	;# 
   181     0088                     	;# 
   182     0089                     	;# 
   183     008C                     	;# 
   184     008D                     	;# 
   185     008E                     	;# 
   186     008F                     	;# 
   187     0090                     	;# 
   188     0091                     	;# 
   189     0092                     	;# 
   190     0093                     	;# 
   191     0093                     	;# 
   192     0093                     	;# 
   193     0094                     	;# 
   194     0095                     	;# 
   195     0096                     	;# 
   196     0097                     	;# 
   197     0098                     	;# 
   198     0099                     	;# 
   199     009A                     	;# 
   200     009B                     	;# 
   201     009C                     	;# 
   202     009D                     	;# 
   203     009E                     	;# 
   204     009F                     	;# 
   205     0105                     	;# 
   206     0107                     	;# 
   207     0108                     	;# 
   208     0109                     	;# 
   209     010C                     	;# 
   210     010C                     	;# 
   211     010D                     	;# 
   212     010E                     	;# 
   213     010F                     	;# 
   214     0185                     	;# 
   215     0187                     	;# 
   216     0188                     	;# 
   217     0189                     	;# 
   218     018C                     	;# 
   219     018D                     	;# 
   220     001D                     _CCP2CON	set	29
   221     0012                     _T2CONbits	set	18
   222     0017                     _CCP1CON	set	23
   223     0005                     _PORTAbits	set	5
   224     0008                     _PORTD	set	8
   225     0006                     _PORTB	set	6
   226     0007                     _PORTC	set	7
   227     001E                     _ADRESH	set	30
   228     001B                     _CCPR2L	set	27
   229     001D                     _CCP2CONbits	set	29
   230     0015                     _CCPR1L	set	21
   231     0017                     _CCP1CONbits	set	23
   232     001F                     _ADCON0bits	set	31
   233     0001                     _TMR0	set	1
   234     0007                     _PORTCbits	set	7
   235     000B                     _INTCONbits	set	11
   236     0092                     _TMR2ON	set	146
   237     0061                     _TMR2IF	set	97
   238     0066                     _ADIF	set	102
   239     0081                     _OPTION_REGbits	set	129
   240     0092                     _PR2	set	146
   241     0087                     _TRISCbits	set	135
   242     009F                     _ADCON1bits	set	159
   243     0085                     _TRISAbits	set	133
   244     008F                     _OSCCONbits	set	143
   245     0088                     _TRISD	set	136
   246     0087                     _TRISC	set	135
   247     0086                     _TRISB	set	134
   248     009E                     _ADRESL	set	158
   249     0188                     _ANSELbits	set	392
   250     0189                     _ANSELH	set	393
   251                           
   252                           	psect	cinit
   253     000F                     start_initialization:	
   254                           ; #config settings
   255                           
   256     000F                     __initialization:
   257                           
   258                           ; Clear objects allocated to COMMON
   259     000F  01FA               	clrf	__pbssCOMMON& (0+127)
   260     0010  01FB               	clrf	(__pbssCOMMON+1)& (0+127)
   261                           
   262                           ; Clear objects allocated to BANK0
   263     0011  1283               	bcf	3,5	;RP0=0, select bank0
   264     0012  1303               	bcf	3,6	;RP1=0, select bank0
   265     0013  01E8               	clrf	__pbssBANK0& (0+127)
   266     0014  01E9               	clrf	(__pbssBANK0+1)& (0+127)
   267     0015  01EA               	clrf	(__pbssBANK0+2)& (0+127)
   268     0016  01EB               	clrf	(__pbssBANK0+3)& (0+127)
   269     0017  01EC               	clrf	(__pbssBANK0+4)& (0+127)
   270     0018  01ED               	clrf	(__pbssBANK0+5)& (0+127)
   271     0019  01EE               	clrf	(__pbssBANK0+6)& (0+127)
   272     001A  01EF               	clrf	(__pbssBANK0+7)& (0+127)
   273                           
   274                           ; Clear objects allocated to BANK1
   275     001B  1683               	bsf	3,5	;RP0=1, select bank1
   276     001C  1303               	bcf	3,6	;RP1=0, select bank1
   277     001D  01A0               	clrf	__pbssBANK1& (0+127)
   278     001E  01A1               	clrf	(__pbssBANK1+1)& (0+127)
   279     001F                     end_of_initialization:	
   280                           ;End of C runtime variable initialization code
   281                           
   282     001F                     __end_of__initialization:
   283     001F  0183               	clrf	3
   284     0020  120A  118A  2E7A   	ljmp	_main	;jump to C main() function
   285                           
   286                           	psect	bssCOMMON
   287     007A                     __pbssCOMMON:
   288     007A                     _vPWMl:
   289     007A                     	ds	2
   290                           
   291                           	psect	bssBANK0
   292     0068                     __pbssBANK0:
   293     0068                     _cont:
   294     0068                     	ds	2
   295     006A                     _vPWMh:
   296     006A                     	ds	2
   297     006C                     _vPWM:
   298     006C                     	ds	2
   299     006E                     _valADC:
   300     006E                     	ds	2
   301                           
   302                           	psect	bssBANK1
   303     00A0                     __pbssBANK1:
   304     00A0                     _PWM3:
   305     00A0                     	ds	2
   306                           
   307                           	psect	cstackCOMMON
   308     0070                     __pcstackCOMMON:
   309     0070                     ?_setup:
   310     0070                     ?_setupINTOSC:	
   311                           ; 1 bytes @ 0x0
   312                           
   313     0070                     ?_setup_ADC:	
   314                           ; 1 bytes @ 0x0
   315                           
   316     0070                     ?_setup_PWM1:	
   317                           ; 1 bytes @ 0x0
   318                           
   319     0070                     ?_setup_PWM2:	
   320                           ; 1 bytes @ 0x0
   321                           
   322     0070                     ?_setupTMR0:	
   323                           ; 1 bytes @ 0x0
   324                           
   325     0070                     ?_mapeo:	
   326                           ; 1 bytes @ 0x0
   327                           
   328     0070                     ?_isr:	
   329                           ; 1 bytes @ 0x0
   330                           
   331     0070                     ??_isr:	
   332                           ; 1 bytes @ 0x0
   333                           
   334     0070                     ?_main:	
   335                           ; 1 bytes @ 0x0
   336                           
   337                           
   338                           ; 2 bytes @ 0x0
   339     0070                     	ds	2
   340     0072                     ??_setup:
   341     0072                     ??_setupINTOSC:	
   342                           ; 1 bytes @ 0x2
   343                           
   344     0072                     ??_setup_ADC:	
   345                           ; 1 bytes @ 0x2
   346                           
   347     0072                     ??_setup_PWM1:	
   348                           ; 1 bytes @ 0x2
   349                           
   350     0072                     ??_setup_PWM2:	
   351                           ; 1 bytes @ 0x2
   352                           
   353     0072                     ??_setupTMR0:	
   354                           ; 1 bytes @ 0x2
   355                           
   356     0072                     ?__Umul8_16:	
   357                           ; 1 bytes @ 0x2
   358                           
   359     0072                     ?___xxtofl:	
   360                           ; 2 bytes @ 0x2
   361                           
   362     0072                     __Umul8_16@multiplicand:	
   363                           ; 4 bytes @ 0x2
   364                           
   365     0072                     ___xxtofl@val:	
   366                           ; 1 bytes @ 0x2
   367                           
   368                           
   369                           ; 4 bytes @ 0x2
   370     0072                     	ds	2
   371     0074                     ??__Umul8_16:
   372                           
   373                           ; 1 bytes @ 0x4
   374     0074                     	ds	2
   375     0076                     ??___xxtofl:
   376                           
   377                           ; 1 bytes @ 0x6
   378     0076                     	ds	4
   379                           
   380                           	psect	cstackBANK0
   381     0020                     __pcstackBANK0:
   382     0020                     ___xxtofl@sign:
   383     0020                     __Umul8_16@product:	
   384                           ; 1 bytes @ 0x0
   385                           
   386                           
   387                           ; 2 bytes @ 0x0
   388     0020                     	ds	1
   389     0021                     ___xxtofl@exp:
   390                           
   391                           ; 1 bytes @ 0x1
   392     0021                     	ds	1
   393     0022                     __Umul8_16@word_mpld:
   394     0022                     ___xxtofl@arg:	
   395                           ; 2 bytes @ 0x2
   396                           
   397                           
   398                           ; 4 bytes @ 0x2
   399     0022                     	ds	2
   400     0024                     __Umul8_16@multiplier:
   401                           
   402                           ; 1 bytes @ 0x4
   403     0024                     	ds	2
   404     0026                     ?___flmul:
   405     0026                     ___flmul@b:	
   406                           ; 4 bytes @ 0x6
   407                           
   408                           
   409                           ; 4 bytes @ 0x6
   410     0026                     	ds	4
   411     002A                     ___flmul@a:
   412                           
   413                           ; 4 bytes @ 0xA
   414     002A                     	ds	4
   415     002E                     ??___flmul:
   416                           
   417                           ; 1 bytes @ 0xE
   418     002E                     	ds	5
   419     0033                     ___flmul@sign:
   420                           
   421                           ; 1 bytes @ 0x13
   422     0033                     	ds	1
   423     0034                     ___flmul@aexp:
   424                           
   425                           ; 1 bytes @ 0x14
   426     0034                     	ds	1
   427     0035                     ___flmul@grs:
   428                           
   429                           ; 4 bytes @ 0x15
   430     0035                     	ds	4
   431     0039                     ___flmul@bexp:
   432                           
   433                           ; 1 bytes @ 0x19
   434     0039                     	ds	1
   435     003A                     ___flmul@prod:
   436                           
   437                           ; 4 bytes @ 0x1A
   438     003A                     	ds	4
   439     003E                     ___flmul@temp:
   440                           
   441                           ; 2 bytes @ 0x1E
   442     003E                     	ds	2
   443     0040                     ?___fladd:
   444     0040                     ___fladd@b:	
   445                           ; 4 bytes @ 0x20
   446                           
   447                           
   448                           ; 4 bytes @ 0x20
   449     0040                     	ds	4
   450     0044                     ___fladd@a:
   451                           
   452                           ; 4 bytes @ 0x24
   453     0044                     	ds	4
   454     0048                     ??___fladd:
   455                           
   456                           ; 1 bytes @ 0x28
   457     0048                     	ds	8
   458     0050                     ___fladd@signs:
   459                           
   460                           ; 1 bytes @ 0x30
   461     0050                     	ds	1
   462     0051                     ___fladd@aexp:
   463                           
   464                           ; 1 bytes @ 0x31
   465     0051                     	ds	1
   466     0052                     ___fladd@bexp:
   467                           
   468                           ; 1 bytes @ 0x32
   469     0052                     	ds	1
   470     0053                     ___fladd@grs:
   471                           
   472                           ; 1 bytes @ 0x33
   473     0053                     	ds	1
   474     0054                     ?___fltol:
   475     0054                     ___fltol@f1:	
   476                           ; 4 bytes @ 0x34
   477                           
   478                           
   479                           ; 4 bytes @ 0x34
   480     0054                     	ds	4
   481     0058                     ??___fltol:
   482                           
   483                           ; 1 bytes @ 0x38
   484     0058                     	ds	4
   485     005C                     ___fltol@sign1:
   486                           
   487                           ; 1 bytes @ 0x3C
   488     005C                     	ds	1
   489     005D                     ___fltol@exp1:
   490                           
   491                           ; 1 bytes @ 0x3D
   492     005D                     	ds	1
   493     005E                     ??_mapeo:
   494                           
   495                           ; 1 bytes @ 0x3E
   496     005E                     	ds	5
   497     0063                     ??_main:
   498                           
   499                           ; 1 bytes @ 0x43
   500     0063                     	ds	5
   501                           
   502                           	psect	maintext
   503     067A                     __pmaintext:	
   504 ;;
   505 ;;Main: autosize = 0, tempsize = 5, incstack = 0, save=0
   506 ;;
   507 ;; *************** function _main *****************
   508 ;; Defined at:
   509 ;;		line 73 in file "main.c"
   510 ;; Parameters:    Size  Location     Type
   511 ;;		None
   512 ;; Auto vars:     Size  Location     Type
   513 ;;		None
   514 ;; Return value:  Size  Location     Type
   515 ;;                  2  102[None  ] int 
   516 ;; Registers used:
   517 ;;		wreg, status,2, status,0, btemp+1, pclath, cstack
   518 ;; Tracked objects:
   519 ;;		On entry : B00/0
   520 ;;		On exit  : 0/0
   521 ;;		Unchanged: 0/0
   522 ;; Data sizes:     COMMON   BANK0   BANK1   BANK3   BANK2
   523 ;;      Params:         0       0       0       0       0
   524 ;;      Locals:         0       0       0       0       0
   525 ;;      Temps:          0       5       0       0       0
   526 ;;      Totals:         0       5       0       0       0
   527 ;;Total ram usage:        5 bytes
   528 ;; Hardware stack levels required when called: 4
   529 ;; This function calls:
   530 ;;		_mapeo
   531 ;;		_setup
   532 ;;		_setupINTOSC
   533 ;;		_setupTMR0
   534 ;;		_setup_ADC
   535 ;;		_setup_PWM1
   536 ;;		_setup_PWM2
   537 ;; This function is called by:
   538 ;;		Startup code after reset
   539 ;; This function uses a non-reentrant model
   540 ;;
   541                           
   542     067A                     _main:	
   543                           ;psect for function _main
   544                           
   545     067A                     l1936:	
   546                           ;incstack = 0
   547                           ; Regs used in _main: [wreg+status,2+status,0+btemp+1+pclath+cstack]
   548                           
   549                           
   550                           ;main.c: 74:     setup();
   551     067A  120A  158A  2716  120A  118A  	fcall	_setup
   552                           
   553                           ;main.c: 75:     setupINTOSC();
   554     067F  120A  158A  270E  120A  118A  	fcall	_setupINTOSC
   555                           
   556                           ;main.c: 76:     setup_ADC();
   557     0684  120A  118A  27A5  120A  118A  	fcall	_setup_ADC
   558                           
   559                           ;main.c: 77:     setup_PWM1();
   560     0689  120A  158A  2735  120A  118A  	fcall	_setup_PWM1
   561                           
   562                           ;main.c: 78:     setup_PWM2();
   563     068E  120A  158A  274A  120A  118A  	fcall	_setup_PWM2
   564                           
   565                           ;main.c: 79:     setupTMR0();
   566     0693  120A  158A  2725  120A  118A  	fcall	_setupTMR0
   567     0698                     l1938:
   568                           
   569                           ;main.c: 82:         cont = 0;
   570     0698  1283               	bcf	3,5	;RP0=0, select bank0
   571     0699  1303               	bcf	3,6	;RP1=0, select bank0
   572     069A  01E8               	clrf	_cont
   573     069B  01E9               	clrf	_cont+1
   574     069C                     l1940:
   575                           
   576                           ;main.c: 84:         ADCON0bits.CHS = 0b0000;
   577     069C  30C3               	movlw	-61
   578     069D  059F               	andwf	31,f	;volatile
   579     069E                     l1942:
   580                           
   581                           ;main.c: 85:         ADCON0bits.GO = 1;
   582     069E  149F               	bsf	31,1	;volatile
   583     069F                     l104:	
   584                           ;main.c: 86:         while (ADCON0bits.GO == 1);
   585                           
   586     069F  189F               	btfsc	31,1	;volatile
   587     06A0  2EA2               	goto	u2801
   588     06A1  2EA3               	goto	u2800
   589     06A2                     u2801:
   590     06A2  2E9F               	goto	l104
   591     06A3                     u2800:
   592     06A3                     l106:
   593                           
   594                           ;main.c: 87:         ADIF = 0;
   595     06A3  130C               	bcf	12,6	;volatile
   596     06A4                     l1944:
   597                           
   598                           ;main.c: 89:         mapeo();
   599     06A4  120A  118A  271E  120A  118A  	fcall	_mapeo
   600     06A9                     l1946:
   601                           
   602                           ;main.c: 92:         CCP1CONbits.DC1B = vPWMl;
   603     06A9  087A               	movf	_vPWMl,w
   604     06AA  1283               	bcf	3,5	;RP0=0, select bank0
   605     06AB  1303               	bcf	3,6	;RP1=0, select bank0
   606     06AC  00E3               	movwf	??_main
   607     06AD  0EE3               	swapf	??_main,f
   608     06AE  0817               	movf	23,w	;volatile
   609     06AF  0663               	xorwf	??_main,w
   610     06B0  39CF               	andlw	-49
   611     06B1  0663               	xorwf	??_main,w
   612     06B2  0097               	movwf	23	;volatile
   613     06B3                     l1948:
   614                           
   615                           ;main.c: 94:         CCPR1L = vPWMh;
   616     06B3  086A               	movf	_vPWMh,w
   617     06B4  0095               	movwf	21	;volatile
   618     06B5                     l1950:
   619                           
   620                           ;main.c: 96:         ADCON0bits.CHS = 0b0001;
   621     06B5  081F               	movf	31,w	;volatile
   622     06B6  39C3               	andlw	-61
   623     06B7  3804               	iorlw	4
   624     06B8  009F               	movwf	31	;volatile
   625     06B9                     l1952:
   626                           
   627                           ;main.c: 97:         ADCON0bits.GO = 1;
   628     06B9  149F               	bsf	31,1	;volatile
   629     06BA                     l107:	
   630                           ;main.c: 98:         while (ADCON0bits.GO == 1);
   631                           
   632     06BA  189F               	btfsc	31,1	;volatile
   633     06BB  2EBD               	goto	u2811
   634     06BC  2EBE               	goto	u2810
   635     06BD                     u2811:
   636     06BD  2EBA               	goto	l107
   637     06BE                     u2810:
   638     06BE                     l109:
   639                           
   640                           ;main.c: 99:         ADIF = 0;
   641     06BE  130C               	bcf	12,6	;volatile
   642     06BF                     l1954:
   643                           
   644                           ;main.c: 101:         mapeo();
   645     06BF  120A  118A  271E  120A  118A  	fcall	_mapeo
   646     06C4                     l1956:
   647                           
   648                           ;main.c: 103:         CCP2CONbits.DC2B0 = vPWMl & 0x01;
   649     06C4  087A               	movf	_vPWMl,w
   650     06C5  3901               	andlw	1
   651     06C6  1283               	bcf	3,5	;RP0=0, select bank0
   652     06C7  1303               	bcf	3,6	;RP1=0, select bank0
   653     06C8  00E3               	movwf	??_main
   654     06C9  0EE3               	swapf	??_main,f
   655     06CA  081D               	movf	29,w	;volatile
   656     06CB  0663               	xorwf	??_main,w
   657     06CC  39EF               	andlw	-17
   658     06CD  0663               	xorwf	??_main,w
   659     06CE  009D               	movwf	29	;volatile
   660     06CF                     l1958:
   661                           
   662                           ;main.c: 104:         CCP2CONbits.DC2B1 = ((vPWMl & 0x02) >> 1);
   663     06CF  087B               	movf	_vPWMl+1,w
   664     06D0  00E4               	movwf	??_main+1
   665     06D1  087A               	movf	_vPWMl,w
   666     06D2  00E3               	movwf	??_main
   667     06D3  1003               	clrc
   668     06D4  0CE4               	rrf	??_main+1,f
   669     06D5  0CE3               	rrf	??_main,f
   670     06D6  0863               	movf	??_main,w
   671     06D7  3901               	andlw	1
   672     06D8  00E5               	movwf	??_main+2
   673     06D9  0EE5               	swapf	??_main+2,f
   674     06DA  0DE5               	rlf	??_main+2,f
   675     06DB  081D               	movf	29,w	;volatile
   676     06DC  0665               	xorwf	??_main+2,w
   677     06DD  39DF               	andlw	-33
   678     06DE  0665               	xorwf	??_main+2,w
   679     06DF  009D               	movwf	29	;volatile
   680     06E0                     l1960:
   681                           
   682                           ;main.c: 106:         CCPR2L = vPWMh;
   683     06E0  086A               	movf	_vPWMh,w
   684     06E1  009B               	movwf	27	;volatile
   685     06E2                     l1962:
   686                           
   687                           ;main.c: 108:         ADCON0bits.CHS = 0b0010;
   688     06E2  081F               	movf	31,w	;volatile
   689     06E3  39C3               	andlw	-61
   690     06E4  3808               	iorlw	8
   691     06E5  009F               	movwf	31	;volatile
   692     06E6                     l1964:
   693                           
   694                           ;main.c: 109:         ADCON0bits.GO = 1;
   695     06E6  149F               	bsf	31,1	;volatile
   696     06E7                     l110:	
   697                           ;main.c: 110:         while (ADCON0bits.GO == 1);
   698                           
   699     06E7  189F               	btfsc	31,1	;volatile
   700     06E8  2EEA               	goto	u2821
   701     06E9  2EEB               	goto	u2820
   702     06EA                     u2821:
   703     06EA  2EE7               	goto	l110
   704     06EB                     u2820:
   705     06EB                     l112:
   706                           
   707                           ;main.c: 111:         ADIF = 0;
   708     06EB  130C               	bcf	12,6	;volatile
   709     06EC                     l1966:
   710                           
   711                           ;main.c: 113:         PWM3 = ((ADRESH << 2) + (ADRESL >> 6));
   712     06EC  1683               	bsf	3,5	;RP0=1, select bank1
   713     06ED  1303               	bcf	3,6	;RP1=0, select bank1
   714     06EE  081E               	movf	30,w	;volatile
   715     06EF  1283               	bcf	3,5	;RP0=0, select bank0
   716     06F0  1303               	bcf	3,6	;RP1=0, select bank0
   717     06F1  00E3               	movwf	??_main
   718     06F2  3006               	movlw	6
   719     06F3                     u2835:
   720     06F3  1003               	clrc
   721     06F4  0CE3               	rrf	??_main,f
   722     06F5  3EFF               	addlw	-1
   723     06F6  1D03               	skipz
   724     06F7  2EF3               	goto	u2835
   725     06F8  081E               	movf	30,w	;volatile
   726     06F9  00E4               	movwf	??_main+1
   727     06FA  01E5               	clrf	??_main+2
   728     06FB  1003               	clrc
   729     06FC  0DE4               	rlf	??_main+1,f
   730     06FD  0DE5               	rlf	??_main+2,f
   731     06FE  1003               	clrc
   732     06FF  0DE4               	rlf	??_main+1,f
   733     0700  0DE5               	rlf	??_main+2,f
   734     0701  0863               	movf	??_main,w
   735     0702  0764               	addwf	??_main+1,w
   736     0703  00E6               	movwf	??_main+3
   737     0704  3000               	movlw	0
   738     0705  1803               	skipnc
   739     0706  3001               	movlw	1
   740     0707  0765               	addwf	??_main+2,w
   741     0708  00E7               	movwf	??_main+4
   742     0709  0866               	movf	??_main+3,w
   743     070A  1683               	bsf	3,5	;RP0=1, select bank1
   744     070B  1303               	bcf	3,6	;RP1=0, select bank1
   745     070C  00A0               	movwf	_PWM3^(0+128)
   746     070D  1283               	bcf	3,5	;RP0=0, select bank0
   747     070E  1303               	bcf	3,6	;RP1=0, select bank0
   748     070F  0867               	movf	??_main+4,w
   749     0710  1683               	bsf	3,5	;RP0=1, select bank1
   750     0711  1303               	bcf	3,6	;RP1=0, select bank1
   751     0712  00A1               	movwf	(_PWM3+1)^(0+128)
   752     0713                     l1968:
   753                           
   754                           ;main.c: 115:         _delay((unsigned long)((1)*(500000/4000.0)));
   755     0713  3028               	movlw	40
   756     0714  1283               	bcf	3,5	;RP0=0, select bank0
   757     0715  1303               	bcf	3,6	;RP1=0, select bank0
   758     0716  00E3               	movwf	??_main
   759     0717                     u2847:
   760     0717  0BE3               	decfsz	??_main,f
   761     0718  2F17               	goto	u2847
   762     0719  2F1A               	nop2
   763     071A  2E98               	goto	l1938
   764     071B  120A  118A  280C   	ljmp	start
   765     071E                     __end_of_main:
   766                           
   767                           	psect	text1
   768     0F4A                     __ptext1:	
   769 ;; *************** function _setup_PWM2 *****************
   770 ;; Defined at:
   771 ;;		line 180 in file "main.c"
   772 ;; Parameters:    Size  Location     Type
   773 ;;		None
   774 ;; Auto vars:     Size  Location     Type
   775 ;;		None
   776 ;; Return value:  Size  Location     Type
   777 ;;                  1    wreg      void 
   778 ;; Registers used:
   779 ;;		wreg, status,2, status,0
   780 ;; Tracked objects:
   781 ;;		On entry : 0/0
   782 ;;		On exit  : 0/0
   783 ;;		Unchanged: 0/0
   784 ;; Data sizes:     COMMON   BANK0   BANK1   BANK3   BANK2
   785 ;;      Params:         0       0       0       0       0
   786 ;;      Locals:         0       0       0       0       0
   787 ;;      Temps:          0       0       0       0       0
   788 ;;      Totals:         0       0       0       0       0
   789 ;;Total ram usage:        0 bytes
   790 ;; Hardware stack levels used: 1
   791 ;; Hardware stack levels required when called: 1
   792 ;; This function calls:
   793 ;;		Nothing
   794 ;; This function is called by:
   795 ;;		_main
   796 ;; This function uses a non-reentrant model
   797 ;;
   798                           
   799     0F4A                     _setup_PWM2:	
   800                           ;psect for function _setup_PWM2
   801                           
   802     0F4A                     l1706:	
   803                           ;incstack = 0
   804                           ; Regs used in _setup_PWM2: [wreg+status,2+status,0]
   805                           
   806                           
   807                           ;main.c: 181:     TRISCbits.TRISC1 = 1;
   808     0F4A  1683               	bsf	3,5	;RP0=1, select bank1
   809     0F4B  1303               	bcf	3,6	;RP1=0, select bank1
   810     0F4C  1487               	bsf	7,1	;volatile
   811     0F4D                     l1708:
   812                           
   813                           ;main.c: 182:     PR2 = 155;
   814     0F4D  309B               	movlw	155
   815     0F4E  0092               	movwf	18	;volatile
   816                           
   817                           ;main.c: 183:     CCP2CON = 0b00001100;
   818     0F4F  300C               	movlw	12
   819     0F50  1283               	bcf	3,5	;RP0=0, select bank0
   820     0F51  1303               	bcf	3,6	;RP1=0, select bank0
   821     0F52  009D               	movwf	29	;volatile
   822     0F53                     l1710:
   823                           
   824                           ;main.c: 184:     TMR2IF = 0;
   825     0F53  108C               	bcf	12,1	;volatile
   826     0F54                     l1712:
   827                           
   828                           ;main.c: 185:     T2CONbits.T2CKPS = 0b11;
   829     0F54  3003               	movlw	3
   830     0F55  0492               	iorwf	18,f	;volatile
   831     0F56                     l1714:
   832                           
   833                           ;main.c: 186:     TMR2ON = 1;
   834     0F56  1512               	bsf	18,2	;volatile
   835     0F57                     l133:	
   836                           ;main.c: 187:     while(!TMR2IF);
   837                           
   838     0F57  1C8C               	btfss	12,1	;volatile
   839     0F58  2F5A               	goto	u2311
   840     0F59  2F5B               	goto	u2310
   841     0F5A                     u2311:
   842     0F5A  2F57               	goto	l133
   843     0F5B                     u2310:
   844     0F5B                     l135:
   845                           
   846                           ;main.c: 188:     TRISCbits.TRISC1 = 0;
   847     0F5B  1683               	bsf	3,5	;RP0=1, select bank1
   848     0F5C  1303               	bcf	3,6	;RP1=0, select bank1
   849     0F5D  1087               	bcf	7,1	;volatile
   850     0F5E                     l136:
   851     0F5E  0008               	return
   852     0F5F                     __end_of_setup_PWM2:
   853                           
   854                           	psect	text2
   855     0F35                     __ptext2:	
   856 ;; *************** function _setup_PWM1 *****************
   857 ;; Defined at:
   858 ;;		line 169 in file "main.c"
   859 ;; Parameters:    Size  Location     Type
   860 ;;		None
   861 ;; Auto vars:     Size  Location     Type
   862 ;;		None
   863 ;; Return value:  Size  Location     Type
   864 ;;                  1    wreg      void 
   865 ;; Registers used:
   866 ;;		wreg, status,2, status,0
   867 ;; Tracked objects:
   868 ;;		On entry : 0/0
   869 ;;		On exit  : 0/0
   870 ;;		Unchanged: 0/0
   871 ;; Data sizes:     COMMON   BANK0   BANK1   BANK3   BANK2
   872 ;;      Params:         0       0       0       0       0
   873 ;;      Locals:         0       0       0       0       0
   874 ;;      Temps:          0       0       0       0       0
   875 ;;      Totals:         0       0       0       0       0
   876 ;;Total ram usage:        0 bytes
   877 ;; Hardware stack levels used: 1
   878 ;; Hardware stack levels required when called: 1
   879 ;; This function calls:
   880 ;;		Nothing
   881 ;; This function is called by:
   882 ;;		_main
   883 ;; This function uses a non-reentrant model
   884 ;;
   885                           
   886     0F35                     _setup_PWM1:	
   887                           ;psect for function _setup_PWM1
   888                           
   889     0F35                     l1696:	
   890                           ;incstack = 0
   891                           ; Regs used in _setup_PWM1: [wreg+status,2+status,0]
   892                           
   893                           
   894                           ;main.c: 170:     TRISCbits.TRISC2 = 1;
   895     0F35  1683               	bsf	3,5	;RP0=1, select bank1
   896     0F36  1303               	bcf	3,6	;RP1=0, select bank1
   897     0F37  1507               	bsf	7,2	;volatile
   898     0F38                     l1698:
   899                           
   900                           ;main.c: 171:     PR2 = 155;
   901     0F38  309B               	movlw	155
   902     0F39  0092               	movwf	18	;volatile
   903                           
   904                           ;main.c: 172:     CCP1CON = 0b00001100;
   905     0F3A  300C               	movlw	12
   906     0F3B  1283               	bcf	3,5	;RP0=0, select bank0
   907     0F3C  1303               	bcf	3,6	;RP1=0, select bank0
   908     0F3D  0097               	movwf	23	;volatile
   909     0F3E                     l1700:
   910                           
   911                           ;main.c: 173:     TMR2IF = 0;
   912     0F3E  108C               	bcf	12,1	;volatile
   913     0F3F                     l1702:
   914                           
   915                           ;main.c: 174:     T2CONbits.T2CKPS = 0b11;
   916     0F3F  3003               	movlw	3
   917     0F40  0492               	iorwf	18,f	;volatile
   918     0F41                     l1704:
   919                           
   920                           ;main.c: 175:     TMR2ON = 1;
   921     0F41  1512               	bsf	18,2	;volatile
   922     0F42                     l127:	
   923                           ;main.c: 176:     while(!TMR2IF);
   924                           
   925     0F42  1C8C               	btfss	12,1	;volatile
   926     0F43  2F45               	goto	u2301
   927     0F44  2F46               	goto	u2300
   928     0F45                     u2301:
   929     0F45  2F42               	goto	l127
   930     0F46                     u2300:
   931     0F46                     l129:
   932                           
   933                           ;main.c: 177:     TRISCbits.TRISC2 = 0;
   934     0F46  1683               	bsf	3,5	;RP0=1, select bank1
   935     0F47  1303               	bcf	3,6	;RP1=0, select bank1
   936     0F48  1107               	bcf	7,2	;volatile
   937     0F49                     l130:
   938     0F49  0008               	return
   939     0F4A                     __end_of_setup_PWM1:
   940                           
   941                           	psect	text3
   942     07A5                     __ptext3:	
   943 ;; *************** function _setup_ADC *****************
   944 ;; Defined at:
   945 ;;		line 141 in file "main.c"
   946 ;; Parameters:    Size  Location     Type
   947 ;;		None
   948 ;; Auto vars:     Size  Location     Type
   949 ;;		None
   950 ;; Return value:  Size  Location     Type
   951 ;;                  1    wreg      void 
   952 ;; Registers used:
   953 ;;		wreg
   954 ;; Tracked objects:
   955 ;;		On entry : 0/0
   956 ;;		On exit  : 0/0
   957 ;;		Unchanged: 0/0
   958 ;; Data sizes:     COMMON   BANK0   BANK1   BANK3   BANK2
   959 ;;      Params:         0       0       0       0       0
   960 ;;      Locals:         0       0       0       0       0
   961 ;;      Temps:          1       0       0       0       0
   962 ;;      Totals:         1       0       0       0       0
   963 ;;Total ram usage:        1 bytes
   964 ;; Hardware stack levels used: 1
   965 ;; Hardware stack levels required when called: 1
   966 ;; This function calls:
   967 ;;		Nothing
   968 ;; This function is called by:
   969 ;;		_main
   970 ;; This function uses a non-reentrant model
   971 ;;
   972                           
   973     07A5                     _setup_ADC:	
   974                           ;psect for function _setup_ADC
   975                           
   976     07A5                     l1692:	
   977                           ;incstack = 0
   978                           ; Regs used in _setup_ADC: [wreg]
   979                           
   980                           
   981                           ;main.c: 142:     PORTAbits.RA0 = 0;
   982     07A5  1283               	bcf	3,5	;RP0=0, select bank0
   983     07A6  1303               	bcf	3,6	;RP1=0, select bank0
   984     07A7  1005               	bcf	5,0	;volatile
   985                           
   986                           ;main.c: 143:     TRISAbits.TRISA0 = 1;
   987     07A8  1683               	bsf	3,5	;RP0=1, select bank1
   988     07A9  1303               	bcf	3,6	;RP1=0, select bank1
   989     07AA  1405               	bsf	5,0	;volatile
   990                           
   991                           ;main.c: 144:     ANSELbits.ANS0 = 1;
   992     07AB  1683               	bsf	3,5	;RP0=1, select bank3
   993     07AC  1703               	bsf	3,6	;RP1=1, select bank3
   994     07AD  1408               	bsf	8,0	;volatile
   995                           
   996                           ;main.c: 146:     PORTAbits.RA1 = 0;
   997     07AE  1283               	bcf	3,5	;RP0=0, select bank0
   998     07AF  1303               	bcf	3,6	;RP1=0, select bank0
   999     07B0  1085               	bcf	5,1	;volatile
  1000                           
  1001                           ;main.c: 147:     TRISAbits.TRISA1 = 1;
  1002     07B1  1683               	bsf	3,5	;RP0=1, select bank1
  1003     07B2  1303               	bcf	3,6	;RP1=0, select bank1
  1004     07B3  1485               	bsf	5,1	;volatile
  1005                           
  1006                           ;main.c: 148:     ANSELbits.ANS1 = 1;
  1007     07B4  1683               	bsf	3,5	;RP0=1, select bank3
  1008     07B5  1703               	bsf	3,6	;RP1=1, select bank3
  1009     07B6  1488               	bsf	8,1	;volatile
  1010                           
  1011                           ;main.c: 150:     PORTAbits.RA2 = 0;
  1012     07B7  1283               	bcf	3,5	;RP0=0, select bank0
  1013     07B8  1303               	bcf	3,6	;RP1=0, select bank0
  1014     07B9  1105               	bcf	5,2	;volatile
  1015                           
  1016                           ;main.c: 151:     TRISAbits.TRISA2 = 1;
  1017     07BA  1683               	bsf	3,5	;RP0=1, select bank1
  1018     07BB  1303               	bcf	3,6	;RP1=0, select bank1
  1019     07BC  1505               	bsf	5,2	;volatile
  1020                           
  1021                           ;main.c: 152:     ANSELbits.ANS2 = 1;
  1022     07BD  1683               	bsf	3,5	;RP0=1, select bank3
  1023     07BE  1703               	bsf	3,6	;RP1=1, select bank3
  1024     07BF  1508               	bsf	8,2	;volatile
  1025                           
  1026                           ;main.c: 155:     ADCON0bits.ADCS1 = 0;
  1027     07C0  1283               	bcf	3,5	;RP0=0, select bank0
  1028     07C1  1303               	bcf	3,6	;RP1=0, select bank0
  1029     07C2  139F               	bcf	31,7	;volatile
  1030                           
  1031                           ;main.c: 156:     ADCON0bits.ADCS0 = 1;
  1032     07C3  171F               	bsf	31,6	;volatile
  1033                           
  1034                           ;main.c: 158:     ADCON1bits.VCFG1 = 0;
  1035     07C4  1683               	bsf	3,5	;RP0=1, select bank1
  1036     07C5  1303               	bcf	3,6	;RP1=0, select bank1
  1037     07C6  129F               	bcf	31,5	;volatile
  1038                           
  1039                           ;main.c: 159:     ADCON1bits.VCFG0 = 0;
  1040     07C7  121F               	bcf	31,4	;volatile
  1041                           
  1042                           ;main.c: 161:     ADCON1bits.ADFM = 0;
  1043     07C8  139F               	bcf	31,7	;volatile
  1044                           
  1045                           ;main.c: 163:     ADCON0bits.ADON = 1;
  1046     07C9  1283               	bcf	3,5	;RP0=0, select bank0
  1047     07CA  1303               	bcf	3,6	;RP1=0, select bank0
  1048     07CB  141F               	bsf	31,0	;volatile
  1049     07CC                     l1694:
  1050                           
  1051                           ;main.c: 164:     _delay((unsigned long)((100)*(500000/4000000.0)));
  1052     07CC  3003               	movlw	3
  1053     07CD  00F2               	movwf	??_setup_ADC
  1054     07CE                     u2857:
  1055     07CE  0BF2               	decfsz	??_setup_ADC,f
  1056     07CF  2FCE               	goto	u2857
  1057     07D0  2FD1               	nop2
  1058     07D1                     l124:
  1059     07D1  0008               	return
  1060     07D2                     __end_of_setup_ADC:
  1061                           
  1062                           	psect	text4
  1063     0F25                     __ptext4:	
  1064 ;; *************** function _setupTMR0 *****************
  1065 ;; Defined at:
  1066 ;;		line 206 in file "main.c"
  1067 ;; Parameters:    Size  Location     Type
  1068 ;;		None
  1069 ;; Auto vars:     Size  Location     Type
  1070 ;;		None
  1071 ;; Return value:  Size  Location     Type
  1072 ;;                  1    wreg      void 
  1073 ;; Registers used:
  1074 ;;		wreg, status,2, status,0
  1075 ;; Tracked objects:
  1076 ;;		On entry : 0/0
  1077 ;;		On exit  : 0/0
  1078 ;;		Unchanged: 0/0
  1079 ;; Data sizes:     COMMON   BANK0   BANK1   BANK3   BANK2
  1080 ;;      Params:         0       0       0       0       0
  1081 ;;      Locals:         0       0       0       0       0
  1082 ;;      Temps:          0       0       0       0       0
  1083 ;;      Totals:         0       0       0       0       0
  1084 ;;Total ram usage:        0 bytes
  1085 ;; Hardware stack levels used: 1
  1086 ;; Hardware stack levels required when called: 1
  1087 ;; This function calls:
  1088 ;;		Nothing
  1089 ;; This function is called by:
  1090 ;;		_main
  1091 ;; This function uses a non-reentrant model
  1092 ;;
  1093                           
  1094     0F25                     _setupTMR0:	
  1095                           ;psect for function _setupTMR0
  1096                           
  1097     0F25                     l1716:	
  1098                           ;incstack = 0
  1099                           ; Regs used in _setupTMR0: [wreg+status,2+status,0]
  1100                           
  1101                           
  1102                           ;main.c: 207:     INTCONbits.GIE = 1;
  1103     0F25  178B               	bsf	11,7	;volatile
  1104                           
  1105                           ;main.c: 208:     INTCONbits.T0IE = 1;
  1106     0F26  168B               	bsf	11,5	;volatile
  1107                           
  1108                           ;main.c: 209:     INTCONbits.T0IF = 0;
  1109     0F27  110B               	bcf	11,2	;volatile
  1110                           
  1111                           ;main.c: 211:     OPTION_REGbits.T0CS = 0;
  1112     0F28  1683               	bsf	3,5	;RP0=1, select bank1
  1113     0F29  1303               	bcf	3,6	;RP1=0, select bank1
  1114     0F2A  1281               	bcf	1,5	;volatile
  1115                           
  1116                           ;main.c: 212:     OPTION_REGbits.PSA = 0;
  1117     0F2B  1181               	bcf	1,3	;volatile
  1118     0F2C                     l1718:
  1119                           
  1120                           ;main.c: 213:     OPTION_REGbits.PS = 0b011;
  1121     0F2C  0801               	movf	1,w	;volatile
  1122     0F2D  39F8               	andlw	-8
  1123     0F2E  3803               	iorlw	3
  1124     0F2F  0081               	movwf	1	;volatile
  1125     0F30                     l1720:
  1126                           
  1127                           ;main.c: 214:     TMR0 = 250;
  1128     0F30  30FA               	movlw	250
  1129     0F31  1283               	bcf	3,5	;RP0=0, select bank0
  1130     0F32  1303               	bcf	3,6	;RP1=0, select bank0
  1131     0F33  0081               	movwf	1	;volatile
  1132     0F34                     l142:
  1133     0F34  0008               	return
  1134     0F35                     __end_of_setupTMR0:
  1135                           
  1136                           	psect	text5
  1137     0F0E                     __ptext5:	
  1138 ;; *************** function _setupINTOSC *****************
  1139 ;; Defined at:
  1140 ;;		line 134 in file "main.c"
  1141 ;; Parameters:    Size  Location     Type
  1142 ;;		None
  1143 ;; Auto vars:     Size  Location     Type
  1144 ;;		None
  1145 ;; Return value:  Size  Location     Type
  1146 ;;                  1    wreg      void 
  1147 ;; Registers used:
  1148 ;;		wreg, status,2, status,0
  1149 ;; Tracked objects:
  1150 ;;		On entry : 0/0
  1151 ;;		On exit  : 0/0
  1152 ;;		Unchanged: 0/0
  1153 ;; Data sizes:     COMMON   BANK0   BANK1   BANK3   BANK2
  1154 ;;      Params:         0       0       0       0       0
  1155 ;;      Locals:         0       0       0       0       0
  1156 ;;      Temps:          0       0       0       0       0
  1157 ;;      Totals:         0       0       0       0       0
  1158 ;;Total ram usage:        0 bytes
  1159 ;; Hardware stack levels used: 1
  1160 ;; Hardware stack levels required when called: 1
  1161 ;; This function calls:
  1162 ;;		Nothing
  1163 ;; This function is called by:
  1164 ;;		_main
  1165 ;; This function uses a non-reentrant model
  1166 ;;
  1167                           
  1168     0F0E                     _setupINTOSC:	
  1169                           ;psect for function _setupINTOSC
  1170                           
  1171     0F0E                     l1688:	
  1172                           ;incstack = 0
  1173                           ; Regs used in _setupINTOSC: [wreg+status,2+status,0]
  1174                           
  1175                           
  1176                           ;main.c: 135:     OSCCONbits.IRCF = 0b011;
  1177     0F0E  1683               	bsf	3,5	;RP0=1, select bank1
  1178     0F0F  1303               	bcf	3,6	;RP1=0, select bank1
  1179     0F10  080F               	movf	15,w	;volatile
  1180     0F11  398F               	andlw	-113
  1181     0F12  3830               	iorlw	48
  1182     0F13  008F               	movwf	15	;volatile
  1183     0F14                     l1690:
  1184                           
  1185                           ;main.c: 136:     OSCCONbits.SCS = 1;
  1186     0F14  140F               	bsf	15,0	;volatile
  1187     0F15                     l121:
  1188     0F15  0008               	return
  1189     0F16                     __end_of_setupINTOSC:
  1190                           
  1191                           	psect	text6
  1192     0F16                     __ptext6:	
  1193 ;; *************** function _setup *****************
  1194 ;; Defined at:
  1195 ;;		line 122 in file "main.c"
  1196 ;; Parameters:    Size  Location     Type
  1197 ;;		None
  1198 ;; Auto vars:     Size  Location     Type
  1199 ;;		None
  1200 ;; Return value:  Size  Location     Type
  1201 ;;                  1    wreg      void 
  1202 ;; Registers used:
  1203 ;;		wreg, status,2
  1204 ;; Tracked objects:
  1205 ;;		On entry : 0/0
  1206 ;;		On exit  : 0/0
  1207 ;;		Unchanged: 0/0
  1208 ;; Data sizes:     COMMON   BANK0   BANK1   BANK3   BANK2
  1209 ;;      Params:         0       0       0       0       0
  1210 ;;      Locals:         0       0       0       0       0
  1211 ;;      Temps:          0       0       0       0       0
  1212 ;;      Totals:         0       0       0       0       0
  1213 ;;Total ram usage:        0 bytes
  1214 ;; Hardware stack levels used: 1
  1215 ;; Hardware stack levels required when called: 1
  1216 ;; This function calls:
  1217 ;;		Nothing
  1218 ;; This function is called by:
  1219 ;;		_main
  1220 ;; This function uses a non-reentrant model
  1221 ;;
  1222                           
  1223     0F16                     _setup:	
  1224                           ;psect for function _setup
  1225                           
  1226     0F16                     l1682:	
  1227                           ;incstack = 0
  1228                           ; Regs used in _setup: [wreg+status,2]
  1229                           
  1230                           
  1231                           ;main.c: 123:     ANSELH = 0;
  1232     0F16  1683               	bsf	3,5	;RP0=1, select bank3
  1233     0F17  1703               	bsf	3,6	;RP1=1, select bank3
  1234     0F18  0189               	clrf	9	;volatile
  1235                           
  1236                           ;main.c: 124:     TRISB = 0;
  1237     0F19  1683               	bsf	3,5	;RP0=1, select bank1
  1238     0F1A  1303               	bcf	3,6	;RP1=0, select bank1
  1239     0F1B  0186               	clrf	6	;volatile
  1240                           
  1241                           ;main.c: 125:     TRISC = 0;
  1242     0F1C  0187               	clrf	7	;volatile
  1243                           
  1244                           ;main.c: 126:     TRISD = 0;
  1245     0F1D  0188               	clrf	8	;volatile
  1246                           
  1247                           ;main.c: 127:     PORTC = 0;
  1248     0F1E  1283               	bcf	3,5	;RP0=0, select bank0
  1249     0F1F  1303               	bcf	3,6	;RP1=0, select bank0
  1250     0F20  0187               	clrf	7	;volatile
  1251     0F21                     l1684:
  1252                           
  1253                           ;main.c: 128:     PORTB = 1;
  1254     0F21  3001               	movlw	1
  1255     0F22  0086               	movwf	6	;volatile
  1256     0F23                     l1686:
  1257                           
  1258                           ;main.c: 129:     PORTD = 0;
  1259     0F23  0188               	clrf	8	;volatile
  1260     0F24                     l118:
  1261     0F24  0008               	return
  1262     0F25                     __end_of_setup:
  1263                           
  1264                           	psect	text7
  1265     071E                     __ptext7:	
  1266 ;; *************** function _mapeo *****************
  1267 ;; Defined at:
  1268 ;;		line 192 in file "main.c"
  1269 ;; Parameters:    Size  Location     Type
  1270 ;;		None
  1271 ;; Auto vars:     Size  Location     Type
  1272 ;;		None
  1273 ;; Return value:  Size  Location     Type
  1274 ;;                  1    wreg      void 
  1275 ;; Registers used:
  1276 ;;		wreg, status,2, status,0, btemp+1, pclath, cstack
  1277 ;; Tracked objects:
  1278 ;;		On entry : 0/0
  1279 ;;		On exit  : 0/0
  1280 ;;		Unchanged: 0/0
  1281 ;; Data sizes:     COMMON   BANK0   BANK1   BANK3   BANK2
  1282 ;;      Params:         0       0       0       0       0
  1283 ;;      Locals:         0       0       0       0       0
  1284 ;;      Temps:          0       5       0       0       0
  1285 ;;      Totals:         0       5       0       0       0
  1286 ;;Total ram usage:        5 bytes
  1287 ;; Hardware stack levels used: 1
  1288 ;; Hardware stack levels required when called: 3
  1289 ;; This function calls:
  1290 ;;		___fladd
  1291 ;;		___flmul
  1292 ;;		___fltol
  1293 ;;		___xxtofl
  1294 ;; This function is called by:
  1295 ;;		_main
  1296 ;; This function uses a non-reentrant model
  1297 ;;
  1298                           
  1299     071E                     _mapeo:	
  1300                           ;psect for function _mapeo
  1301                           
  1302     071E                     l1928:	
  1303                           ;incstack = 0
  1304                           ; Regs used in _mapeo: [wreg+status,2+status,0+btemp+1+pclath+cstack]
  1305                           
  1306                           
  1307                           ;main.c: 194:     valADC = ((ADRESH << 2) + (ADRESL >> 6));
  1308     071E  1683               	bsf	3,5	;RP0=1, select bank1
  1309     071F  1303               	bcf	3,6	;RP1=0, select bank1
  1310     0720  081E               	movf	30,w	;volatile
  1311     0721  1283               	bcf	3,5	;RP0=0, select bank0
  1312     0722  1303               	bcf	3,6	;RP1=0, select bank0
  1313     0723  00DE               	movwf	??_mapeo
  1314     0724  3006               	movlw	6
  1315     0725                     u2795:
  1316     0725  1003               	clrc
  1317     0726  0CDE               	rrf	??_mapeo,f
  1318     0727  3EFF               	addlw	-1
  1319     0728  1D03               	skipz
  1320     0729  2F25               	goto	u2795
  1321     072A  081E               	movf	30,w	;volatile
  1322     072B  00DF               	movwf	??_mapeo+1
  1323     072C  01E0               	clrf	??_mapeo+2
  1324     072D  1003               	clrc
  1325     072E  0DDF               	rlf	??_mapeo+1,f
  1326     072F  0DE0               	rlf	??_mapeo+2,f
  1327     0730  1003               	clrc
  1328     0731  0DDF               	rlf	??_mapeo+1,f
  1329     0732  0DE0               	rlf	??_mapeo+2,f
  1330     0733  085E               	movf	??_mapeo,w
  1331     0734  075F               	addwf	??_mapeo+1,w
  1332     0735  00E1               	movwf	??_mapeo+3
  1333     0736  3000               	movlw	0
  1334     0737  1803               	skipnc
  1335     0738  3001               	movlw	1
  1336     0739  0760               	addwf	??_mapeo+2,w
  1337     073A  00E2               	movwf	??_mapeo+4
  1338     073B  0861               	movf	??_mapeo+3,w
  1339     073C  00EE               	movwf	_valADC
  1340     073D  0862               	movf	??_mapeo+4,w
  1341     073E  00EF               	movwf	_valADC+1
  1342     073F                     l1930:
  1343                           
  1344                           ;main.c: 197:     vPWM = (0.0635*valADC + 31);
  1345     073F  086E               	movf	_valADC,w
  1346     0740  00F2               	movwf	___xxtofl@val
  1347     0741  086F               	movf	_valADC+1,w
  1348     0742  00F3               	movwf	___xxtofl@val+1
  1349     0743  01F4               	clrf	___xxtofl@val+2
  1350     0744  01F5               	clrf	___xxtofl@val+3
  1351     0745  3000               	movlw	0
  1352     0746  120A  118A  25C0  120A  118A  	fcall	___xxtofl
  1353     074B  0875               	movf	?___xxtofl+3,w
  1354     074C  1283               	bcf	3,5	;RP0=0, select bank0
  1355     074D  1303               	bcf	3,6	;RP1=0, select bank0
  1356     074E  00AD               	movwf	___flmul@a+3
  1357     074F  0874               	movf	?___xxtofl+2,w
  1358     0750  00AC               	movwf	___flmul@a+2
  1359     0751  0873               	movf	?___xxtofl+1,w
  1360     0752  00AB               	movwf	___flmul@a+1
  1361     0753  0872               	movf	?___xxtofl,w
  1362     0754  00AA               	movwf	___flmul@a
  1363     0755  303D               	movlw	61
  1364     0756  00A9               	movwf	___flmul@b+3
  1365     0757  3082               	movlw	130
  1366     0758  00A8               	movwf	___flmul@b+2
  1367     0759  300C               	movlw	12
  1368     075A  00A7               	movwf	___flmul@b+1
  1369     075B  304A               	movlw	74
  1370     075C  00A6               	movwf	___flmul@b
  1371     075D  120A  118A  2023  120A  118A  	fcall	___flmul
  1372     0762  1283               	bcf	3,5	;RP0=0, select bank0
  1373     0763  1303               	bcf	3,6	;RP1=0, select bank0
  1374     0764  0829               	movf	?___flmul+3,w
  1375     0765  00C7               	movwf	___fladd@a+3
  1376     0766  0828               	movf	?___flmul+2,w
  1377     0767  00C6               	movwf	___fladd@a+2
  1378     0768  0827               	movf	?___flmul+1,w
  1379     0769  00C5               	movwf	___fladd@a+1
  1380     076A  0826               	movf	?___flmul,w
  1381     076B  00C4               	movwf	___fladd@a
  1382     076C  3041               	movlw	65
  1383     076D  00C3               	movwf	___fladd@b+3
  1384     076E  30F8               	movlw	248
  1385     076F  00C2               	movwf	___fladd@b+2
  1386     0770  3000               	movlw	0
  1387     0771  00C1               	movwf	___fladd@b+1
  1388     0772  3000               	movlw	0
  1389     0773  00C0               	movwf	___fladd@b
  1390     0774  120A  118A  2368  120A  118A  	fcall	___fladd
  1391     0779  1283               	bcf	3,5	;RP0=0, select bank0
  1392     077A  1303               	bcf	3,6	;RP1=0, select bank0
  1393     077B  0843               	movf	?___fladd+3,w
  1394     077C  00D7               	movwf	___fltol@f1+3
  1395     077D  0842               	movf	?___fladd+2,w
  1396     077E  00D6               	movwf	___fltol@f1+2
  1397     077F  0841               	movf	?___fladd+1,w
  1398     0780  00D5               	movwf	___fltol@f1+1
  1399     0781  0840               	movf	?___fladd,w
  1400     0782  00D4               	movwf	___fltol@f1
  1401     0783  120A  158A  2788  120A  118A  	fcall	___fltol
  1402     0788  1283               	bcf	3,5	;RP0=0, select bank0
  1403     0789  1303               	bcf	3,6	;RP1=0, select bank0
  1404     078A  0855               	movf	?___fltol+1,w
  1405     078B  00ED               	movwf	_vPWM+1
  1406     078C  0854               	movf	?___fltol,w
  1407     078D  00EC               	movwf	_vPWM
  1408     078E                     l1932:
  1409                           
  1410                           ;main.c: 200:     vPWMl = vPWM & 0x003;
  1411     078E  3003               	movlw	3
  1412     078F  056C               	andwf	_vPWM,w
  1413     0790  00FA               	movwf	_vPWMl
  1414     0791  3000               	movlw	0
  1415     0792  056D               	andwf	_vPWM+1,w
  1416     0793  00FB               	movwf	_vPWMl+1
  1417     0794                     l1934:
  1418                           
  1419                           ;main.c: 203:     vPWMh = (vPWM & 0x3FC) >> 2;
  1420     0794  086D               	movf	_vPWM+1,w
  1421     0795  00DF               	movwf	??_mapeo+1
  1422     0796  086C               	movf	_vPWM,w
  1423     0797  00DE               	movwf	??_mapeo
  1424     0798  1003               	clrc
  1425     0799  0CDF               	rrf	??_mapeo+1,f
  1426     079A  0CDE               	rrf	??_mapeo,f
  1427     079B  1003               	clrc
  1428     079C  0CDF               	rrf	??_mapeo+1,f
  1429     079D  0CDE               	rrf	??_mapeo,f
  1430     079E  30FF               	movlw	255
  1431     079F  055E               	andwf	??_mapeo,w
  1432     07A0  00EA               	movwf	_vPWMh
  1433     07A1  3000               	movlw	0
  1434     07A2  055F               	andwf	??_mapeo+1,w
  1435     07A3  00EB               	movwf	_vPWMh+1
  1436     07A4                     l139:
  1437     07A4  0008               	return
  1438     07A5                     __end_of_mapeo:
  1439                           
  1440                           	psect	text8
  1441     05C0                     __ptext8:	
  1442 ;; *************** function ___xxtofl *****************
  1443 ;; Defined at:
  1444 ;;		line 10 in file "C:\Program Files\Microchip\xc8\v2.40\pic\sources\c90\common\xxtofl.c"
  1445 ;; Parameters:    Size  Location     Type
  1446 ;;  sign            1    wreg     unsigned char 
  1447 ;;  val             4    2[COMMON] long 
  1448 ;; Auto vars:     Size  Location     Type
  1449 ;;  sign            1    0[BANK0 ] unsigned char 
  1450 ;;  arg             4    2[BANK0 ] unsigned long 
  1451 ;;  exp             1    1[BANK0 ] unsigned char 
  1452 ;; Return value:  Size  Location     Type
  1453 ;;                  4    2[COMMON] unsigned char 
  1454 ;; Registers used:
  1455 ;;		wreg, status,2, status,0
  1456 ;; Tracked objects:
  1457 ;;		On entry : 0/0
  1458 ;;		On exit  : 0/0
  1459 ;;		Unchanged: 0/0
  1460 ;; Data sizes:     COMMON   BANK0   BANK1   BANK3   BANK2
  1461 ;;      Params:         4       0       0       0       0
  1462 ;;      Locals:         0       6       0       0       0
  1463 ;;      Temps:          4       0       0       0       0
  1464 ;;      Totals:         8       6       0       0       0
  1465 ;;Total ram usage:       14 bytes
  1466 ;; Hardware stack levels used: 1
  1467 ;; Hardware stack levels required when called: 1
  1468 ;; This function calls:
  1469 ;;		Nothing
  1470 ;; This function is called by:
  1471 ;;		_mapeo
  1472 ;; This function uses a non-reentrant model
  1473 ;;
  1474                           
  1475     05C0                     ___xxtofl:	
  1476                           ;psect for function ___xxtofl
  1477                           
  1478                           
  1479                           ;incstack = 0
  1480                           ; Regs used in ___xxtofl: [wreg+status,2+status,0]
  1481                           ;___xxtofl@sign stored from wreg
  1482     05C0  1283               	bcf	3,5	;RP0=0, select bank0
  1483     05C1  1303               	bcf	3,6	;RP1=0, select bank0
  1484     05C2  00A0               	movwf	___xxtofl@sign
  1485     05C3                     l1638:
  1486     05C3  0820               	movf	___xxtofl@sign,w
  1487     05C4  1903               	btfsc	3,2
  1488     05C5  2DC7               	goto	u2161
  1489     05C6  2DC8               	goto	u2160
  1490     05C7                     u2161:
  1491     05C7  2DDC               	goto	l1644
  1492     05C8                     u2160:
  1493     05C8                     l1640:
  1494     05C8  1FF5               	btfss	___xxtofl@val+3,7
  1495     05C9  2DCB               	goto	u2171
  1496     05CA  2DCC               	goto	u2170
  1497     05CB                     u2171:
  1498     05CB  2DDC               	goto	l1644
  1499     05CC                     u2170:
  1500     05CC                     l1642:
  1501     05CC  0972               	comf	___xxtofl@val,w
  1502     05CD  00A2               	movwf	___xxtofl@arg
  1503     05CE  0973               	comf	___xxtofl@val+1,w
  1504     05CF  00A3               	movwf	___xxtofl@arg+1
  1505     05D0  0974               	comf	___xxtofl@val+2,w
  1506     05D1  00A4               	movwf	___xxtofl@arg+2
  1507     05D2  0975               	comf	___xxtofl@val+3,w
  1508     05D3  00A5               	movwf	___xxtofl@arg+3
  1509     05D4  0AA2               	incf	___xxtofl@arg,f
  1510     05D5  1903               	skipnz
  1511     05D6  0AA3               	incf	___xxtofl@arg+1,f
  1512     05D7  1903               	skipnz
  1513     05D8  0AA4               	incf	___xxtofl@arg+2,f
  1514     05D9  1903               	skipnz
  1515     05DA  0AA5               	incf	___xxtofl@arg+3,f
  1516     05DB  2DE4               	goto	l661
  1517     05DC                     l1644:
  1518     05DC  0875               	movf	___xxtofl@val+3,w
  1519     05DD  00A5               	movwf	___xxtofl@arg+3
  1520     05DE  0874               	movf	___xxtofl@val+2,w
  1521     05DF  00A4               	movwf	___xxtofl@arg+2
  1522     05E0  0873               	movf	___xxtofl@val+1,w
  1523     05E1  00A3               	movwf	___xxtofl@arg+1
  1524     05E2  0872               	movf	___xxtofl@val,w
  1525     05E3  00A2               	movwf	___xxtofl@arg
  1526     05E4                     l661:
  1527     05E4  0875               	movf	___xxtofl@val+3,w
  1528     05E5  0474               	iorwf	___xxtofl@val+2,w
  1529     05E6  0473               	iorwf	___xxtofl@val+1,w
  1530     05E7  0472               	iorwf	___xxtofl@val,w
  1531     05E8  1D03               	skipz
  1532     05E9  2DEB               	goto	u2181
  1533     05EA  2DEC               	goto	u2180
  1534     05EB                     u2181:
  1535     05EB  2DF5               	goto	l1650
  1536     05EC                     u2180:
  1537     05EC                     l1646:
  1538     05EC  3000               	movlw	0
  1539     05ED  00F5               	movwf	?___xxtofl+3
  1540     05EE  3000               	movlw	0
  1541     05EF  00F4               	movwf	?___xxtofl+2
  1542     05F0  3000               	movlw	0
  1543     05F1  00F3               	movwf	?___xxtofl+1
  1544     05F2  3000               	movlw	0
  1545     05F3  00F2               	movwf	?___xxtofl
  1546     05F4  2E79               	goto	l663
  1547     05F5                     l1650:
  1548     05F5  3096               	movlw	150
  1549     05F6  00A1               	movwf	___xxtofl@exp
  1550     05F7  2E05               	goto	l1654
  1551     05F8                     l1652:
  1552     05F8  3001               	movlw	1
  1553     05F9  00F6               	movwf	??___xxtofl
  1554     05FA  0876               	movf	??___xxtofl,w
  1555     05FB  07A1               	addwf	___xxtofl@exp,f
  1556     05FC  3001               	movlw	1
  1557     05FD                     u2195:
  1558     05FD  1003               	clrc
  1559     05FE  0CA5               	rrf	___xxtofl@arg+3,f
  1560     05FF  0CA4               	rrf	___xxtofl@arg+2,f
  1561     0600  0CA3               	rrf	___xxtofl@arg+1,f
  1562     0601  0CA2               	rrf	___xxtofl@arg,f
  1563     0602  3EFF               	addlw	-1
  1564     0603  1D03               	skipz
  1565     0604  2DFD               	goto	u2195
  1566     0605                     l1654:
  1567     0605  30FE               	movlw	254
  1568     0606  0525               	andwf	___xxtofl@arg+3,w
  1569     0607  1D03               	btfss	3,2
  1570     0608  2E0A               	goto	u2201
  1571     0609  2E0B               	goto	u2200
  1572     060A                     u2201:
  1573     060A  2DF8               	goto	l1652
  1574     060B                     u2200:
  1575     060B  2E27               	goto	l667
  1576     060C                     l1656:
  1577     060C  3001               	movlw	1
  1578     060D  00F6               	movwf	??___xxtofl
  1579     060E  0876               	movf	??___xxtofl,w
  1580     060F  07A1               	addwf	___xxtofl@exp,f
  1581     0610                     l1658:
  1582     0610  3001               	movlw	1
  1583     0611  07A2               	addwf	___xxtofl@arg,f
  1584     0612  3000               	movlw	0
  1585     0613  1803               	skipnc
  1586     0614  3001               	movlw	1
  1587     0615  07A3               	addwf	___xxtofl@arg+1,f
  1588     0616  3000               	movlw	0
  1589     0617  1803               	skipnc
  1590     0618  3001               	movlw	1
  1591     0619  07A4               	addwf	___xxtofl@arg+2,f
  1592     061A  3000               	movlw	0
  1593     061B  1803               	skipnc
  1594     061C  3001               	movlw	1
  1595     061D  07A5               	addwf	___xxtofl@arg+3,f
  1596     061E                     l1660:
  1597     061E  3001               	movlw	1
  1598     061F                     u2215:
  1599     061F  1003               	clrc
  1600     0620  0CA5               	rrf	___xxtofl@arg+3,f
  1601     0621  0CA4               	rrf	___xxtofl@arg+2,f
  1602     0622  0CA3               	rrf	___xxtofl@arg+1,f
  1603     0623  0CA2               	rrf	___xxtofl@arg,f
  1604     0624  3EFF               	addlw	-1
  1605     0625  1D03               	skipz
  1606     0626  2E1F               	goto	u2215
  1607     0627                     l667:
  1608     0627  30FF               	movlw	255
  1609     0628  0525               	andwf	___xxtofl@arg+3,w
  1610     0629  1D03               	btfss	3,2
  1611     062A  2E2C               	goto	u2221
  1612     062B  2E2D               	goto	u2220
  1613     062C                     u2221:
  1614     062C  2E0C               	goto	l1656
  1615     062D                     u2220:
  1616     062D  2E39               	goto	l1664
  1617     062E                     l1662:
  1618     062E  3001               	movlw	1
  1619     062F  02A1               	subwf	___xxtofl@exp,f
  1620     0630  3001               	movlw	1
  1621     0631  00F6               	movwf	??___xxtofl
  1622     0632                     u2235:
  1623     0632  1003               	clrc
  1624     0633  0DA2               	rlf	___xxtofl@arg,f
  1625     0634  0DA3               	rlf	___xxtofl@arg+1,f
  1626     0635  0DA4               	rlf	___xxtofl@arg+2,f
  1627     0636  0DA5               	rlf	___xxtofl@arg+3,f
  1628     0637  0BF6               	decfsz	??___xxtofl,f
  1629     0638  2E32               	goto	u2235
  1630     0639                     l1664:
  1631     0639  1BA4               	btfsc	___xxtofl@arg+2,7
  1632     063A  2E3C               	goto	u2241
  1633     063B  2E3D               	goto	u2240
  1634     063C                     u2241:
  1635     063C  2E43               	goto	l674
  1636     063D                     u2240:
  1637     063D                     l1666:
  1638     063D  3002               	movlw	2
  1639     063E  0221               	subwf	___xxtofl@exp,w
  1640     063F  1803               	skipnc
  1641     0640  2E42               	goto	u2251
  1642     0641  2E43               	goto	u2250
  1643     0642                     u2251:
  1644     0642  2E2E               	goto	l1662
  1645     0643                     u2250:
  1646     0643                     l674:
  1647     0643  1821               	btfsc	___xxtofl@exp,0
  1648     0644  2E46               	goto	u2261
  1649     0645  2E47               	goto	u2260
  1650     0646                     u2261:
  1651     0646  2E4F               	goto	l675
  1652     0647                     u2260:
  1653     0647                     l1668:
  1654     0647  30FF               	movlw	255
  1655     0648  05A2               	andwf	___xxtofl@arg,f
  1656     0649  30FF               	movlw	255
  1657     064A  05A3               	andwf	___xxtofl@arg+1,f
  1658     064B  307F               	movlw	127
  1659     064C  05A4               	andwf	___xxtofl@arg+2,f
  1660     064D  30FF               	movlw	255
  1661     064E  05A5               	andwf	___xxtofl@arg+3,f
  1662     064F                     l675:
  1663     064F  1003               	clrc
  1664     0650  0CA1               	rrf	___xxtofl@exp,f
  1665     0651                     l1670:
  1666     0651  0821               	movf	___xxtofl@exp,w
  1667     0652  00F6               	movwf	??___xxtofl
  1668     0653  01F7               	clrf	??___xxtofl+1
  1669     0654  01F8               	clrf	??___xxtofl+2
  1670     0655  01F9               	clrf	??___xxtofl+3
  1671     0656  3018               	movlw	24
  1672     0657                     u2275:
  1673     0657  1003               	clrc
  1674     0658  0DF6               	rlf	??___xxtofl,f
  1675     0659  0DF7               	rlf	??___xxtofl+1,f
  1676     065A  0DF8               	rlf	??___xxtofl+2,f
  1677     065B  0DF9               	rlf	??___xxtofl+3,f
  1678     065C                     u2270:
  1679     065C  3EFF               	addlw	-1
  1680     065D  1D03               	skipz
  1681     065E  2E57               	goto	u2275
  1682     065F  0876               	movf	??___xxtofl,w
  1683     0660  04A2               	iorwf	___xxtofl@arg,f
  1684     0661  0877               	movf	??___xxtofl+1,w
  1685     0662  04A3               	iorwf	___xxtofl@arg+1,f
  1686     0663  0878               	movf	??___xxtofl+2,w
  1687     0664  04A4               	iorwf	___xxtofl@arg+2,f
  1688     0665  0879               	movf	??___xxtofl+3,w
  1689     0666  04A5               	iorwf	___xxtofl@arg+3,f
  1690     0667                     l1672:
  1691     0667  0820               	movf	___xxtofl@sign,w
  1692     0668  1903               	btfsc	3,2
  1693     0669  2E6B               	goto	u2281
  1694     066A  2E6C               	goto	u2280
  1695     066B                     u2281:
  1696     066B  2E71               	goto	l1678
  1697     066C                     u2280:
  1698     066C                     l1674:
  1699     066C  1FF5               	btfss	___xxtofl@val+3,7
  1700     066D  2E6F               	goto	u2291
  1701     066E  2E70               	goto	u2290
  1702     066F                     u2291:
  1703     066F  2E71               	goto	l1678
  1704     0670                     u2290:
  1705     0670                     l1676:
  1706     0670  17A5               	bsf	___xxtofl@arg+3,7
  1707     0671                     l1678:
  1708     0671  0825               	movf	___xxtofl@arg+3,w
  1709     0672  00F5               	movwf	?___xxtofl+3
  1710     0673  0824               	movf	___xxtofl@arg+2,w
  1711     0674  00F4               	movwf	?___xxtofl+2
  1712     0675  0823               	movf	___xxtofl@arg+1,w
  1713     0676  00F3               	movwf	?___xxtofl+1
  1714     0677  0822               	movf	___xxtofl@arg,w
  1715     0678  00F2               	movwf	?___xxtofl
  1716     0679                     l663:
  1717     0679  0008               	return
  1718     067A                     __end_of___xxtofl:
  1719                           
  1720                           	psect	text9
  1721     0F88                     __ptext9:	
  1722 ;; *************** function ___fltol *****************
  1723 ;; Defined at:
  1724 ;;		line 43 in file "C:\Program Files\Microchip\xc8\v2.40\pic\sources\c90\common\fltol.c"
  1725 ;; Parameters:    Size  Location     Type
  1726 ;;  f1              4   52[BANK0 ] unsigned char 
  1727 ;; Auto vars:     Size  Location     Type
  1728 ;;  exp1            1   61[BANK0 ] unsigned char 
  1729 ;;  sign1           1   60[BANK0 ] unsigned char 
  1730 ;; Return value:  Size  Location     Type
  1731 ;;                  4   52[BANK0 ] long 
  1732 ;; Registers used:
  1733 ;;		wreg, status,2, status,0
  1734 ;; Tracked objects:
  1735 ;;		On entry : 0/0
  1736 ;;		On exit  : 0/0
  1737 ;;		Unchanged: 0/0
  1738 ;; Data sizes:     COMMON   BANK0   BANK1   BANK3   BANK2
  1739 ;;      Params:         0       4       0       0       0
  1740 ;;      Locals:         0       2       0       0       0
  1741 ;;      Temps:          0       4       0       0       0
  1742 ;;      Totals:         0      10       0       0       0
  1743 ;;Total ram usage:       10 bytes
  1744 ;; Hardware stack levels used: 1
  1745 ;; Hardware stack levels required when called: 1
  1746 ;; This function calls:
  1747 ;;		Nothing
  1748 ;; This function is called by:
  1749 ;;		_mapeo
  1750 ;; This function uses a non-reentrant model
  1751 ;;
  1752                           
  1753     0F88                     ___fltol:	
  1754                           ;psect for function ___fltol
  1755                           
  1756     0F88                     l1268:	
  1757                           ;incstack = 0
  1758                           ; Regs used in ___fltol: [wreg+status,2+status,0]
  1759                           
  1760     0F88  1003               	clrc
  1761     0F89  1283               	bcf	3,5	;RP0=0, select bank0
  1762     0F8A  1303               	bcf	3,6	;RP1=0, select bank0
  1763     0F8B  0D56               	rlf	___fltol@f1+2,w
  1764     0F8C  0D57               	rlf	___fltol@f1+3,w
  1765     0F8D  00DD               	movwf	___fltol@exp1
  1766     0F8E  085D               	movf	___fltol@exp1,w
  1767     0F8F  1D03               	btfss	3,2
  1768     0F90  2F92               	goto	u1231
  1769     0F91  2F93               	goto	u1230
  1770     0F92                     u1231:
  1771     0F92  2F9C               	goto	l1274
  1772     0F93                     u1230:
  1773     0F93                     l1270:
  1774     0F93  3000               	movlw	0
  1775     0F94  00D7               	movwf	?___fltol+3
  1776     0F95  3000               	movlw	0
  1777     0F96  00D6               	movwf	?___fltol+2
  1778     0F97  3000               	movlw	0
  1779     0F98  00D5               	movwf	?___fltol+1
  1780     0F99  3000               	movlw	0
  1781     0F9A  00D4               	movwf	?___fltol
  1782     0F9B  2FFF               	goto	l414
  1783     0F9C                     l1274:
  1784     0F9C  0854               	movf	___fltol@f1,w
  1785     0F9D  00D8               	movwf	??___fltol
  1786     0F9E  0855               	movf	___fltol@f1+1,w
  1787     0F9F  00D9               	movwf	??___fltol+1
  1788     0FA0  0856               	movf	___fltol@f1+2,w
  1789     0FA1  00DA               	movwf	??___fltol+2
  1790     0FA2  0857               	movf	___fltol@f1+3,w
  1791     0FA3  00DB               	movwf	??___fltol+3
  1792     0FA4  301F               	movlw	31
  1793     0FA5                     u1245:
  1794     0FA5  1003               	clrc
  1795     0FA6  0CDB               	rrf	??___fltol+3,f
  1796     0FA7  0CDA               	rrf	??___fltol+2,f
  1797     0FA8  0CD9               	rrf	??___fltol+1,f
  1798     0FA9  0CD8               	rrf	??___fltol,f
  1799     0FAA                     u1240:
  1800     0FAA  3EFF               	addlw	-1
  1801     0FAB  1D03               	skipz
  1802     0FAC  2FA5               	goto	u1245
  1803     0FAD  0858               	movf	??___fltol,w
  1804     0FAE  00DC               	movwf	___fltol@sign1
  1805     0FAF                     l1276:
  1806     0FAF  17D6               	bsf	___fltol@f1+2,7
  1807     0FB0                     l1278:
  1808     0FB0  30FF               	movlw	255
  1809     0FB1  05D4               	andwf	___fltol@f1,f
  1810     0FB2  30FF               	movlw	255
  1811     0FB3  05D5               	andwf	___fltol@f1+1,f
  1812     0FB4  30FF               	movlw	255
  1813     0FB5  05D6               	andwf	___fltol@f1+2,f
  1814     0FB6  3000               	movlw	0
  1815     0FB7  05D7               	andwf	___fltol@f1+3,f
  1816     0FB8                     l1280:
  1817     0FB8  3096               	movlw	150
  1818     0FB9  02DD               	subwf	___fltol@exp1,f
  1819     0FBA                     l1282:
  1820     0FBA  1FDD               	btfss	___fltol@exp1,7
  1821     0FBB  2FBD               	goto	u1251
  1822     0FBC  2FBE               	goto	u1250
  1823     0FBD                     u1251:
  1824     0FBD  2FD8               	goto	l1292
  1825     0FBE                     u1250:
  1826     0FBE                     l1284:
  1827     0FBE  085D               	movf	___fltol@exp1,w
  1828     0FBF  3A80               	xorlw	128
  1829     0FC0  3E97               	addlw	151
  1830     0FC1  1803               	skipnc
  1831     0FC2  2FC4               	goto	u1261
  1832     0FC3  2FC5               	goto	u1260
  1833     0FC4                     u1261:
  1834     0FC4  2FC6               	goto	l1290
  1835     0FC5                     u1260:
  1836     0FC5  2F93               	goto	l1270
  1837     0FC6                     l1290:
  1838     0FC6  3001               	movlw	1
  1839     0FC7                     u1275:
  1840     0FC7  1003               	clrc
  1841     0FC8  0CD7               	rrf	___fltol@f1+3,f
  1842     0FC9  0CD6               	rrf	___fltol@f1+2,f
  1843     0FCA  0CD5               	rrf	___fltol@f1+1,f
  1844     0FCB  0CD4               	rrf	___fltol@f1,f
  1845     0FCC  3EFF               	addlw	-1
  1846     0FCD  1D03               	skipz
  1847     0FCE  2FC7               	goto	u1275
  1848     0FCF  3001               	movlw	1
  1849     0FD0  00D8               	movwf	??___fltol
  1850     0FD1  0858               	movf	??___fltol,w
  1851     0FD2  07DD               	addwf	___fltol@exp1,f
  1852     0FD3  1D03               	btfss	3,2
  1853     0FD4  2FD6               	goto	u1281
  1854     0FD5  2FD7               	goto	u1280
  1855     0FD6                     u1281:
  1856     0FD6  2FC6               	goto	l1290
  1857     0FD7                     u1280:
  1858     0FD7  2FEF               	goto	l1300
  1859     0FD8                     l1292:
  1860     0FD8  3020               	movlw	32
  1861     0FD9  025D               	subwf	___fltol@exp1,w
  1862     0FDA  1C03               	skipc
  1863     0FDB  2FDD               	goto	u1291
  1864     0FDC  2FDE               	goto	u1290
  1865     0FDD                     u1291:
  1866     0FDD  2FEA               	goto	l421
  1867     0FDE                     u1290:
  1868     0FDE  2F93               	goto	l1270
  1869     0FDF                     l1298:
  1870     0FDF  3001               	movlw	1
  1871     0FE0  00D8               	movwf	??___fltol
  1872     0FE1                     u1305:
  1873     0FE1  1003               	clrc
  1874     0FE2  0DD4               	rlf	___fltol@f1,f
  1875     0FE3  0DD5               	rlf	___fltol@f1+1,f
  1876     0FE4  0DD6               	rlf	___fltol@f1+2,f
  1877     0FE5  0DD7               	rlf	___fltol@f1+3,f
  1878     0FE6  0BD8               	decfsz	??___fltol,f
  1879     0FE7  2FE1               	goto	u1305
  1880     0FE8  3001               	movlw	1
  1881     0FE9  02DD               	subwf	___fltol@exp1,f
  1882     0FEA                     l421:
  1883     0FEA  085D               	movf	___fltol@exp1,w
  1884     0FEB  1D03               	btfss	3,2
  1885     0FEC  2FEE               	goto	u1311
  1886     0FED  2FEF               	goto	u1310
  1887     0FEE                     u1311:
  1888     0FEE  2FDF               	goto	l1298
  1889     0FEF                     u1310:
  1890     0FEF                     l1300:
  1891     0FEF  085C               	movf	___fltol@sign1,w
  1892     0FF0  1903               	btfsc	3,2
  1893     0FF1  2FF3               	goto	u1321
  1894     0FF2  2FF4               	goto	u1320
  1895     0FF3                     u1321:
  1896     0FF3  2FFF               	goto	l424
  1897     0FF4                     u1320:
  1898     0FF4                     l1302:
  1899     0FF4  09D4               	comf	___fltol@f1,f
  1900     0FF5  09D5               	comf	___fltol@f1+1,f
  1901     0FF6  09D6               	comf	___fltol@f1+2,f
  1902     0FF7  09D7               	comf	___fltol@f1+3,f
  1903     0FF8  0AD4               	incf	___fltol@f1,f
  1904     0FF9  1903               	skipnz
  1905     0FFA  0AD5               	incf	___fltol@f1+1,f
  1906     0FFB  1903               	skipnz
  1907     0FFC  0AD6               	incf	___fltol@f1+2,f
  1908     0FFD  1903               	skipnz
  1909     0FFE  0AD7               	incf	___fltol@f1+3,f
  1910     0FFF                     l424:
  1911     0FFF                     l414:
  1912     0FFF  0008               	return
  1913     1000                     __end_of___fltol:
  1914                           
  1915                           	psect	text10
  1916     0023                     __ptext10:	
  1917 ;; *************** function ___flmul *****************
  1918 ;; Defined at:
  1919 ;;		line 8 in file "C:\Program Files\Microchip\xc8\v2.40\pic\sources\c90\common\sprcmul.c"
  1920 ;; Parameters:    Size  Location     Type
  1921 ;;  b               4    6[BANK0 ] long 
  1922 ;;  a               4   10[BANK0 ] long 
  1923 ;; Auto vars:     Size  Location     Type
  1924 ;;  prod            4   26[BANK0 ] struct .
  1925 ;;  grs             4   21[BANK0 ] unsigned long 
  1926 ;;  temp            2   30[BANK0 ] struct .
  1927 ;;  bexp            1   25[BANK0 ] unsigned char 
  1928 ;;  aexp            1   20[BANK0 ] unsigned char 
  1929 ;;  sign            1   19[BANK0 ] unsigned char 
  1930 ;; Return value:  Size  Location     Type
  1931 ;;                  4    6[BANK0 ] unsigned char 
  1932 ;; Registers used:
  1933 ;;		wreg, status,2, status,0, btemp+1, pclath, cstack
  1934 ;; Tracked objects:
  1935 ;;		On entry : 0/0
  1936 ;;		On exit  : 0/0
  1937 ;;		Unchanged: 0/0
  1938 ;; Data sizes:     COMMON   BANK0   BANK1   BANK3   BANK2
  1939 ;;      Params:         0       8       0       0       0
  1940 ;;      Locals:         0      13       0       0       0
  1941 ;;      Temps:          0       5       0       0       0
  1942 ;;      Totals:         0      26       0       0       0
  1943 ;;Total ram usage:       26 bytes
  1944 ;; Hardware stack levels used: 1
  1945 ;; Hardware stack levels required when called: 2
  1946 ;; This function calls:
  1947 ;;		__Umul8_16
  1948 ;; This function is called by:
  1949 ;;		_mapeo
  1950 ;; This function uses a non-reentrant model
  1951 ;;
  1952                           
  1953     0023                     ___flmul:	
  1954                           ;psect for function ___flmul
  1955                           
  1956     0023                     l1788:	
  1957                           ;incstack = 0
  1958                           ; Regs used in ___flmul: [wreg+status,2+status,0+btemp+1+pclath+cstack]
  1959                           
  1960     0023  1283               	bcf	3,5	;RP0=0, select bank0
  1961     0024  1303               	bcf	3,6	;RP1=0, select bank0
  1962     0025  0829               	movf	___flmul@b+3,w
  1963     0026  3980               	andlw	128
  1964     0027  00B3               	movwf	___flmul@sign
  1965     0028                     l1790:
  1966     0028  0829               	movf	___flmul@b+3,w
  1967     0029  00AE               	movwf	??___flmul
  1968     002A  072E               	addwf	??___flmul,w
  1969     002B  00B9               	movwf	___flmul@bexp
  1970     002C                     l1792:
  1971     002C  1FA8               	btfss	___flmul@b+2,7
  1972     002D  282F               	goto	u2421
  1973     002E  2830               	goto	u2420
  1974     002F                     u2421:
  1975     002F  2831               	goto	l1796
  1976     0030                     u2420:
  1977     0030                     l1794:
  1978     0030  1439               	bsf	___flmul@bexp,0
  1979     0031                     l1796:
  1980     0031  0839               	movf	___flmul@bexp,w
  1981     0032  1903               	btfsc	3,2
  1982     0033  2835               	goto	u2431
  1983     0034  2836               	goto	u2430
  1984     0035                     u2431:
  1985     0035  2845               	goto	l1804
  1986     0036                     u2430:
  1987     0036                     l1798:
  1988     0036  0A39               	incf	___flmul@bexp,w
  1989     0037  1D03               	btfss	3,2
  1990     0038  283A               	goto	u2441
  1991     0039  283B               	goto	u2440
  1992     003A                     u2441:
  1993     003A  2843               	goto	l1802
  1994     003B                     u2440:
  1995     003B                     l1800:
  1996     003B  3000               	movlw	0
  1997     003C  00A9               	movwf	___flmul@b+3
  1998     003D  3000               	movlw	0
  1999     003E  00A8               	movwf	___flmul@b+2
  2000     003F  3000               	movlw	0
  2001     0040  00A7               	movwf	___flmul@b+1
  2002     0041  3000               	movlw	0
  2003     0042  00A6               	movwf	___flmul@b
  2004     0043                     l1802:
  2005     0043  17A8               	bsf	___flmul@b+2,7
  2006     0044  284D               	goto	l1806
  2007     0045                     l1804:
  2008     0045  3000               	movlw	0
  2009     0046  00A9               	movwf	___flmul@b+3
  2010     0047  3000               	movlw	0
  2011     0048  00A8               	movwf	___flmul@b+2
  2012     0049  3000               	movlw	0
  2013     004A  00A7               	movwf	___flmul@b+1
  2014     004B  3000               	movlw	0
  2015     004C  00A6               	movwf	___flmul@b
  2016     004D                     l1806:
  2017     004D  082D               	movf	___flmul@a+3,w
  2018     004E  3980               	andlw	128
  2019     004F  00AE               	movwf	??___flmul
  2020     0050  082E               	movf	??___flmul,w
  2021     0051  06B3               	xorwf	___flmul@sign,f
  2022     0052                     l1808:
  2023     0052  082D               	movf	___flmul@a+3,w
  2024     0053  00AE               	movwf	??___flmul
  2025     0054  072E               	addwf	??___flmul,w
  2026     0055  00B4               	movwf	___flmul@aexp
  2027     0056                     l1810:
  2028     0056  1FAC               	btfss	___flmul@a+2,7
  2029     0057  2859               	goto	u2451
  2030     0058  285A               	goto	u2450
  2031     0059                     u2451:
  2032     0059  285B               	goto	l1814
  2033     005A                     u2450:
  2034     005A                     l1812:
  2035     005A  1434               	bsf	___flmul@aexp,0
  2036     005B                     l1814:
  2037     005B  0834               	movf	___flmul@aexp,w
  2038     005C  1903               	btfsc	3,2
  2039     005D  285F               	goto	u2461
  2040     005E  2860               	goto	u2460
  2041     005F                     u2461:
  2042     005F  286F               	goto	l1822
  2043     0060                     u2460:
  2044     0060                     l1816:
  2045     0060  0A34               	incf	___flmul@aexp,w
  2046     0061  1D03               	btfss	3,2
  2047     0062  2864               	goto	u2471
  2048     0063  2865               	goto	u2470
  2049     0064                     u2471:
  2050     0064  286D               	goto	l1820
  2051     0065                     u2470:
  2052     0065                     l1818:
  2053     0065  3000               	movlw	0
  2054     0066  00AD               	movwf	___flmul@a+3
  2055     0067  3000               	movlw	0
  2056     0068  00AC               	movwf	___flmul@a+2
  2057     0069  3000               	movlw	0
  2058     006A  00AB               	movwf	___flmul@a+1
  2059     006B  3000               	movlw	0
  2060     006C  00AA               	movwf	___flmul@a
  2061     006D                     l1820:
  2062     006D  17AC               	bsf	___flmul@a+2,7
  2063     006E  2877               	goto	l1824
  2064     006F                     l1822:
  2065     006F  3000               	movlw	0
  2066     0070  00AD               	movwf	___flmul@a+3
  2067     0071  3000               	movlw	0
  2068     0072  00AC               	movwf	___flmul@a+2
  2069     0073  3000               	movlw	0
  2070     0074  00AB               	movwf	___flmul@a+1
  2071     0075  3000               	movlw	0
  2072     0076  00AA               	movwf	___flmul@a
  2073     0077                     l1824:
  2074     0077  0834               	movf	___flmul@aexp,w
  2075     0078  1903               	btfsc	3,2
  2076     0079  287B               	goto	u2481
  2077     007A  287C               	goto	u2480
  2078     007B                     u2481:
  2079     007B  2881               	goto	l1828
  2080     007C                     u2480:
  2081     007C                     l1826:
  2082     007C  0839               	movf	___flmul@bexp,w
  2083     007D  1D03               	btfss	3,2
  2084     007E  2880               	goto	u2491
  2085     007F  2881               	goto	u2490
  2086     0080                     u2491:
  2087     0080  288A               	goto	l1832
  2088     0081                     u2490:
  2089     0081                     l1828:
  2090     0081  3000               	movlw	0
  2091     0082  00A9               	movwf	?___flmul+3
  2092     0083  3000               	movlw	0
  2093     0084  00A8               	movwf	?___flmul+2
  2094     0085  3000               	movlw	0
  2095     0086  00A7               	movwf	?___flmul+1
  2096     0087  3000               	movlw	0
  2097     0088  00A6               	movwf	?___flmul
  2098     0089  2B67               	goto	l617
  2099     008A                     l1832:
  2100     008A  0826               	movf	___flmul@b,w
  2101     008B  00F2               	movwf	__Umul8_16@multiplicand
  2102     008C  082C               	movf	___flmul@a+2,w
  2103     008D  120A  158A  275F  120A  118A  	fcall	__Umul8_16
  2104     0092  0873               	movf	?__Umul8_16+1,w
  2105     0093  1283               	bcf	3,5	;RP0=0, select bank0
  2106     0094  1303               	bcf	3,6	;RP1=0, select bank0
  2107     0095  00BF               	movwf	___flmul@temp+1
  2108     0096  0872               	movf	?__Umul8_16,w
  2109     0097  00BE               	movwf	___flmul@temp
  2110     0098                     l1834:
  2111     0098  083E               	movf	___flmul@temp,w
  2112     0099  00AE               	movwf	??___flmul
  2113     009A  01AF               	clrf	??___flmul+1
  2114     009B  01B0               	clrf	??___flmul+2
  2115     009C  01B1               	clrf	??___flmul+3
  2116     009D  0831               	movf	??___flmul+3,w
  2117     009E  00B8               	movwf	___flmul@grs+3
  2118     009F  0830               	movf	??___flmul+2,w
  2119     00A0  00B7               	movwf	___flmul@grs+2
  2120     00A1  082F               	movf	??___flmul+1,w
  2121     00A2  00B6               	movwf	___flmul@grs+1
  2122     00A3  082E               	movf	??___flmul,w
  2123     00A4  00B5               	movwf	___flmul@grs
  2124     00A5                     l1836:
  2125     00A5  083F               	movf	___flmul@temp+1,w
  2126     00A6  00AE               	movwf	??___flmul
  2127     00A7  01AF               	clrf	??___flmul+1
  2128     00A8  01B0               	clrf	??___flmul+2
  2129     00A9  01B1               	clrf	??___flmul+3
  2130     00AA  0831               	movf	??___flmul+3,w
  2131     00AB  00BD               	movwf	___flmul@prod+3
  2132     00AC  0830               	movf	??___flmul+2,w
  2133     00AD  00BC               	movwf	___flmul@prod+2
  2134     00AE  082F               	movf	??___flmul+1,w
  2135     00AF  00BB               	movwf	___flmul@prod+1
  2136     00B0  082E               	movf	??___flmul,w
  2137     00B1  00BA               	movwf	___flmul@prod
  2138     00B2  0827               	movf	___flmul@b+1,w
  2139     00B3  00F2               	movwf	__Umul8_16@multiplicand
  2140     00B4  082B               	movf	___flmul@a+1,w
  2141     00B5  120A  158A  275F  120A  118A  	fcall	__Umul8_16
  2142     00BA  0873               	movf	?__Umul8_16+1,w
  2143     00BB  1283               	bcf	3,5	;RP0=0, select bank0
  2144     00BC  1303               	bcf	3,6	;RP1=0, select bank0
  2145     00BD  00BF               	movwf	___flmul@temp+1
  2146     00BE  0872               	movf	?__Umul8_16,w
  2147     00BF  00BE               	movwf	___flmul@temp
  2148     00C0                     l1838:
  2149     00C0  083E               	movf	___flmul@temp,w
  2150     00C1  00AE               	movwf	??___flmul
  2151     00C2  01AF               	clrf	??___flmul+1
  2152     00C3  01B0               	clrf	??___flmul+2
  2153     00C4  01B1               	clrf	??___flmul+3
  2154     00C5  082E               	movf	??___flmul,w
  2155     00C6  07B5               	addwf	___flmul@grs,f
  2156     00C7  082F               	movf	??___flmul+1,w
  2157     00C8  1103               	clrz
  2158     00C9  1803               	skipnc
  2159     00CA  3E01               	addlw	1
  2160     00CB  1903               	skipnz
  2161     00CC  28CE               	goto	u2501
  2162     00CD  07B6               	addwf	___flmul@grs+1,f
  2163     00CE                     u2501:
  2164     00CE  0830               	movf	??___flmul+2,w
  2165     00CF  1103               	clrz
  2166     00D0  1803               	skipnc
  2167     00D1  3E01               	addlw	1
  2168     00D2  1903               	skipnz
  2169     00D3  28D5               	goto	u2502
  2170     00D4  07B7               	addwf	___flmul@grs+2,f
  2171     00D5                     u2502:
  2172     00D5  0831               	movf	??___flmul+3,w
  2173     00D6  1103               	clrz
  2174     00D7  1803               	skipnc
  2175     00D8  3E01               	addlw	1
  2176     00D9  1903               	skipnz
  2177     00DA  28DC               	goto	u2503
  2178     00DB  07B8               	addwf	___flmul@grs+3,f
  2179     00DC                     u2503:
  2180     00DC                     l1840:
  2181     00DC  083F               	movf	___flmul@temp+1,w
  2182     00DD  00AE               	movwf	??___flmul
  2183     00DE  01AF               	clrf	??___flmul+1
  2184     00DF  01B0               	clrf	??___flmul+2
  2185     00E0  01B1               	clrf	??___flmul+3
  2186     00E1  082E               	movf	??___flmul,w
  2187     00E2  07BA               	addwf	___flmul@prod,f
  2188     00E3  082F               	movf	??___flmul+1,w
  2189     00E4  1103               	clrz
  2190     00E5  1803               	skipnc
  2191     00E6  3E01               	addlw	1
  2192     00E7  1903               	skipnz
  2193     00E8  28EA               	goto	u2511
  2194     00E9  07BB               	addwf	___flmul@prod+1,f
  2195     00EA                     u2511:
  2196     00EA  0830               	movf	??___flmul+2,w
  2197     00EB  1103               	clrz
  2198     00EC  1803               	skipnc
  2199     00ED  3E01               	addlw	1
  2200     00EE  1903               	skipnz
  2201     00EF  28F1               	goto	u2512
  2202     00F0  07BC               	addwf	___flmul@prod+2,f
  2203     00F1                     u2512:
  2204     00F1  0831               	movf	??___flmul+3,w
  2205     00F2  1103               	clrz
  2206     00F3  1803               	skipnc
  2207     00F4  3E01               	addlw	1
  2208     00F5  1903               	skipnz
  2209     00F6  28F8               	goto	u2513
  2210     00F7  07BD               	addwf	___flmul@prod+3,f
  2211     00F8                     u2513:
  2212     00F8  0828               	movf	___flmul@b+2,w
  2213     00F9  00F2               	movwf	__Umul8_16@multiplicand
  2214     00FA  082A               	movf	___flmul@a,w
  2215     00FB  120A  158A  275F  120A  118A  	fcall	__Umul8_16
  2216     0100  0873               	movf	?__Umul8_16+1,w
  2217     0101  1283               	bcf	3,5	;RP0=0, select bank0
  2218     0102  1303               	bcf	3,6	;RP1=0, select bank0
  2219     0103  00BF               	movwf	___flmul@temp+1
  2220     0104  0872               	movf	?__Umul8_16,w
  2221     0105  00BE               	movwf	___flmul@temp
  2222     0106                     l1842:
  2223     0106  083E               	movf	___flmul@temp,w
  2224     0107  00AE               	movwf	??___flmul
  2225     0108  01AF               	clrf	??___flmul+1
  2226     0109  01B0               	clrf	??___flmul+2
  2227     010A  01B1               	clrf	??___flmul+3
  2228     010B  082E               	movf	??___flmul,w
  2229     010C  07B5               	addwf	___flmul@grs,f
  2230     010D  082F               	movf	??___flmul+1,w
  2231     010E  1103               	clrz
  2232     010F  1803               	skipnc
  2233     0110  3E01               	addlw	1
  2234     0111  1903               	skipnz
  2235     0112  2914               	goto	u2521
  2236     0113  07B6               	addwf	___flmul@grs+1,f
  2237     0114                     u2521:
  2238     0114  0830               	movf	??___flmul+2,w
  2239     0115  1103               	clrz
  2240     0116  1803               	skipnc
  2241     0117  3E01               	addlw	1
  2242     0118  1903               	skipnz
  2243     0119  291B               	goto	u2522
  2244     011A  07B7               	addwf	___flmul@grs+2,f
  2245     011B                     u2522:
  2246     011B  0831               	movf	??___flmul+3,w
  2247     011C  1103               	clrz
  2248     011D  1803               	skipnc
  2249     011E  3E01               	addlw	1
  2250     011F  1903               	skipnz
  2251     0120  2922               	goto	u2523
  2252     0121  07B8               	addwf	___flmul@grs+3,f
  2253     0122                     u2523:
  2254     0122                     l1844:
  2255     0122  083F               	movf	___flmul@temp+1,w
  2256     0123  00AE               	movwf	??___flmul
  2257     0124  01AF               	clrf	??___flmul+1
  2258     0125  01B0               	clrf	??___flmul+2
  2259     0126  01B1               	clrf	??___flmul+3
  2260     0127  082E               	movf	??___flmul,w
  2261     0128  07BA               	addwf	___flmul@prod,f
  2262     0129  082F               	movf	??___flmul+1,w
  2263     012A  1103               	clrz
  2264     012B  1803               	skipnc
  2265     012C  3E01               	addlw	1
  2266     012D  1903               	skipnz
  2267     012E  2930               	goto	u2531
  2268     012F  07BB               	addwf	___flmul@prod+1,f
  2269     0130                     u2531:
  2270     0130  0830               	movf	??___flmul+2,w
  2271     0131  1103               	clrz
  2272     0132  1803               	skipnc
  2273     0133  3E01               	addlw	1
  2274     0134  1903               	skipnz
  2275     0135  2937               	goto	u2532
  2276     0136  07BC               	addwf	___flmul@prod+2,f
  2277     0137                     u2532:
  2278     0137  0831               	movf	??___flmul+3,w
  2279     0138  1103               	clrz
  2280     0139  1803               	skipnc
  2281     013A  3E01               	addlw	1
  2282     013B  1903               	skipnz
  2283     013C  293E               	goto	u2533
  2284     013D  07BD               	addwf	___flmul@prod+3,f
  2285     013E                     u2533:
  2286     013E                     l1846:
  2287     013E  3008               	movlw	8
  2288     013F  00AE               	movwf	??___flmul
  2289     0140                     u2545:
  2290     0140  1003               	clrc
  2291     0141  0DB5               	rlf	___flmul@grs,f
  2292     0142  0DB6               	rlf	___flmul@grs+1,f
  2293     0143  0DB7               	rlf	___flmul@grs+2,f
  2294     0144  0DB8               	rlf	___flmul@grs+3,f
  2295     0145  0BAE               	decfsz	??___flmul,f
  2296     0146  2940               	goto	u2545
  2297     0147                     l1848:
  2298     0147  0827               	movf	___flmul@b+1,w
  2299     0148  00F2               	movwf	__Umul8_16@multiplicand
  2300     0149  082A               	movf	___flmul@a,w
  2301     014A  120A  158A  275F  120A  118A  	fcall	__Umul8_16
  2302     014F  0873               	movf	?__Umul8_16+1,w
  2303     0150  1283               	bcf	3,5	;RP0=0, select bank0
  2304     0151  1303               	bcf	3,6	;RP1=0, select bank0
  2305     0152  00BF               	movwf	___flmul@temp+1
  2306     0153  0872               	movf	?__Umul8_16,w
  2307     0154  00BE               	movwf	___flmul@temp
  2308     0155                     l1850:
  2309     0155  083E               	movf	___flmul@temp,w
  2310     0156  00AE               	movwf	??___flmul
  2311     0157  083F               	movf	___flmul@temp+1,w
  2312     0158  00AF               	movwf	??___flmul+1
  2313     0159  01B0               	clrf	??___flmul+2
  2314     015A  01B1               	clrf	??___flmul+3
  2315     015B  082E               	movf	??___flmul,w
  2316     015C  07B5               	addwf	___flmul@grs,f
  2317     015D  082F               	movf	??___flmul+1,w
  2318     015E  1103               	clrz
  2319     015F  1803               	skipnc
  2320     0160  3E01               	addlw	1
  2321     0161  1903               	skipnz
  2322     0162  2964               	goto	u2551
  2323     0163  07B6               	addwf	___flmul@grs+1,f
  2324     0164                     u2551:
  2325     0164  0830               	movf	??___flmul+2,w
  2326     0165  1103               	clrz
  2327     0166  1803               	skipnc
  2328     0167  3E01               	addlw	1
  2329     0168  1903               	skipnz
  2330     0169  296B               	goto	u2552
  2331     016A  07B7               	addwf	___flmul@grs+2,f
  2332     016B                     u2552:
  2333     016B  0831               	movf	??___flmul+3,w
  2334     016C  1103               	clrz
  2335     016D  1803               	skipnc
  2336     016E  3E01               	addlw	1
  2337     016F  1903               	skipnz
  2338     0170  2972               	goto	u2553
  2339     0171  07B8               	addwf	___flmul@grs+3,f
  2340     0172                     u2553:
  2341     0172                     l1852:
  2342     0172  0826               	movf	___flmul@b,w
  2343     0173  00F2               	movwf	__Umul8_16@multiplicand
  2344     0174  082B               	movf	___flmul@a+1,w
  2345     0175  120A  158A  275F  120A  118A  	fcall	__Umul8_16
  2346     017A  0873               	movf	?__Umul8_16+1,w
  2347     017B  1283               	bcf	3,5	;RP0=0, select bank0
  2348     017C  1303               	bcf	3,6	;RP1=0, select bank0
  2349     017D  00BF               	movwf	___flmul@temp+1
  2350     017E  0872               	movf	?__Umul8_16,w
  2351     017F  00BE               	movwf	___flmul@temp
  2352     0180                     l1854:
  2353     0180  083E               	movf	___flmul@temp,w
  2354     0181  00AE               	movwf	??___flmul
  2355     0182  083F               	movf	___flmul@temp+1,w
  2356     0183  00AF               	movwf	??___flmul+1
  2357     0184  01B0               	clrf	??___flmul+2
  2358     0185  01B1               	clrf	??___flmul+3
  2359     0186  082E               	movf	??___flmul,w
  2360     0187  07B5               	addwf	___flmul@grs,f
  2361     0188  082F               	movf	??___flmul+1,w
  2362     0189  1103               	clrz
  2363     018A  1803               	skipnc
  2364     018B  3E01               	addlw	1
  2365     018C  1903               	skipnz
  2366     018D  298F               	goto	u2561
  2367     018E  07B6               	addwf	___flmul@grs+1,f
  2368     018F                     u2561:
  2369     018F  0830               	movf	??___flmul+2,w
  2370     0190  1103               	clrz
  2371     0191  1803               	skipnc
  2372     0192  3E01               	addlw	1
  2373     0193  1903               	skipnz
  2374     0194  2996               	goto	u2562
  2375     0195  07B7               	addwf	___flmul@grs+2,f
  2376     0196                     u2562:
  2377     0196  0831               	movf	??___flmul+3,w
  2378     0197  1103               	clrz
  2379     0198  1803               	skipnc
  2380     0199  3E01               	addlw	1
  2381     019A  1903               	skipnz
  2382     019B  299D               	goto	u2563
  2383     019C  07B8               	addwf	___flmul@grs+3,f
  2384     019D                     u2563:
  2385     019D                     l1856:
  2386     019D  3008               	movlw	8
  2387     019E  00AE               	movwf	??___flmul
  2388     019F                     u2575:
  2389     019F  1003               	clrc
  2390     01A0  0DB5               	rlf	___flmul@grs,f
  2391     01A1  0DB6               	rlf	___flmul@grs+1,f
  2392     01A2  0DB7               	rlf	___flmul@grs+2,f
  2393     01A3  0DB8               	rlf	___flmul@grs+3,f
  2394     01A4  0BAE               	decfsz	??___flmul,f
  2395     01A5  299F               	goto	u2575
  2396     01A6  0826               	movf	___flmul@b,w
  2397     01A7  00F2               	movwf	__Umul8_16@multiplicand
  2398     01A8  082A               	movf	___flmul@a,w
  2399     01A9  120A  158A  275F  120A  118A  	fcall	__Umul8_16
  2400     01AE  0873               	movf	?__Umul8_16+1,w
  2401     01AF  1283               	bcf	3,5	;RP0=0, select bank0
  2402     01B0  1303               	bcf	3,6	;RP1=0, select bank0
  2403     01B1  00BF               	movwf	___flmul@temp+1
  2404     01B2  0872               	movf	?__Umul8_16,w
  2405     01B3  00BE               	movwf	___flmul@temp
  2406     01B4                     l1858:
  2407     01B4  083E               	movf	___flmul@temp,w
  2408     01B5  00AE               	movwf	??___flmul
  2409     01B6  083F               	movf	___flmul@temp+1,w
  2410     01B7  00AF               	movwf	??___flmul+1
  2411     01B8  01B0               	clrf	??___flmul+2
  2412     01B9  01B1               	clrf	??___flmul+3
  2413     01BA  082E               	movf	??___flmul,w
  2414     01BB  07B5               	addwf	___flmul@grs,f
  2415     01BC  082F               	movf	??___flmul+1,w
  2416     01BD  1103               	clrz
  2417     01BE  1803               	skipnc
  2418     01BF  3E01               	addlw	1
  2419     01C0  1903               	skipnz
  2420     01C1  29C3               	goto	u2581
  2421     01C2  07B6               	addwf	___flmul@grs+1,f
  2422     01C3                     u2581:
  2423     01C3  0830               	movf	??___flmul+2,w
  2424     01C4  1103               	clrz
  2425     01C5  1803               	skipnc
  2426     01C6  3E01               	addlw	1
  2427     01C7  1903               	skipnz
  2428     01C8  29CA               	goto	u2582
  2429     01C9  07B7               	addwf	___flmul@grs+2,f
  2430     01CA                     u2582:
  2431     01CA  0831               	movf	??___flmul+3,w
  2432     01CB  1103               	clrz
  2433     01CC  1803               	skipnc
  2434     01CD  3E01               	addlw	1
  2435     01CE  1903               	skipnz
  2436     01CF  29D1               	goto	u2583
  2437     01D0  07B8               	addwf	___flmul@grs+3,f
  2438     01D1                     u2583:
  2439     01D1                     l1860:
  2440     01D1  0827               	movf	___flmul@b+1,w
  2441     01D2  00F2               	movwf	__Umul8_16@multiplicand
  2442     01D3  082C               	movf	___flmul@a+2,w
  2443     01D4  120A  158A  275F  120A  118A  	fcall	__Umul8_16
  2444     01D9  0873               	movf	?__Umul8_16+1,w
  2445     01DA  1283               	bcf	3,5	;RP0=0, select bank0
  2446     01DB  1303               	bcf	3,6	;RP1=0, select bank0
  2447     01DC  00BF               	movwf	___flmul@temp+1
  2448     01DD  0872               	movf	?__Umul8_16,w
  2449     01DE  00BE               	movwf	___flmul@temp
  2450     01DF  083E               	movf	___flmul@temp,w
  2451     01E0  00AE               	movwf	??___flmul
  2452     01E1  083F               	movf	___flmul@temp+1,w
  2453     01E2  00AF               	movwf	??___flmul+1
  2454     01E3  01B0               	clrf	??___flmul+2
  2455     01E4  01B1               	clrf	??___flmul+3
  2456     01E5  082E               	movf	??___flmul,w
  2457     01E6  07BA               	addwf	___flmul@prod,f
  2458     01E7  082F               	movf	??___flmul+1,w
  2459     01E8  1103               	clrz
  2460     01E9  1803               	skipnc
  2461     01EA  3E01               	addlw	1
  2462     01EB  1903               	skipnz
  2463     01EC  29EE               	goto	u2591
  2464     01ED  07BB               	addwf	___flmul@prod+1,f
  2465     01EE                     u2591:
  2466     01EE  0830               	movf	??___flmul+2,w
  2467     01EF  1103               	clrz
  2468     01F0  1803               	skipnc
  2469     01F1  3E01               	addlw	1
  2470     01F2  1903               	skipnz
  2471     01F3  29F5               	goto	u2592
  2472     01F4  07BC               	addwf	___flmul@prod+2,f
  2473     01F5                     u2592:
  2474     01F5  0831               	movf	??___flmul+3,w
  2475     01F6  1103               	clrz
  2476     01F7  1803               	skipnc
  2477     01F8  3E01               	addlw	1
  2478     01F9  1903               	skipnz
  2479     01FA  29FC               	goto	u2593
  2480     01FB  07BD               	addwf	___flmul@prod+3,f
  2481     01FC                     u2593:
  2482     01FC                     l1862:
  2483     01FC  0828               	movf	___flmul@b+2,w
  2484     01FD  00F2               	movwf	__Umul8_16@multiplicand
  2485     01FE  082B               	movf	___flmul@a+1,w
  2486     01FF  120A  158A  275F  120A  118A  	fcall	__Umul8_16
  2487     0204  0873               	movf	?__Umul8_16+1,w
  2488     0205  1283               	bcf	3,5	;RP0=0, select bank0
  2489     0206  1303               	bcf	3,6	;RP1=0, select bank0
  2490     0207  00BF               	movwf	___flmul@temp+1
  2491     0208  0872               	movf	?__Umul8_16,w
  2492     0209  00BE               	movwf	___flmul@temp
  2493     020A                     l1864:
  2494     020A  083E               	movf	___flmul@temp,w
  2495     020B  00AE               	movwf	??___flmul
  2496     020C  083F               	movf	___flmul@temp+1,w
  2497     020D  00AF               	movwf	??___flmul+1
  2498     020E  01B0               	clrf	??___flmul+2
  2499     020F  01B1               	clrf	??___flmul+3
  2500     0210  082E               	movf	??___flmul,w
  2501     0211  07BA               	addwf	___flmul@prod,f
  2502     0212  082F               	movf	??___flmul+1,w
  2503     0213  1103               	clrz
  2504     0214  1803               	skipnc
  2505     0215  3E01               	addlw	1
  2506     0216  1903               	skipnz
  2507     0217  2A19               	goto	u2601
  2508     0218  07BB               	addwf	___flmul@prod+1,f
  2509     0219                     u2601:
  2510     0219  0830               	movf	??___flmul+2,w
  2511     021A  1103               	clrz
  2512     021B  1803               	skipnc
  2513     021C  3E01               	addlw	1
  2514     021D  1903               	skipnz
  2515     021E  2A20               	goto	u2602
  2516     021F  07BC               	addwf	___flmul@prod+2,f
  2517     0220                     u2602:
  2518     0220  0831               	movf	??___flmul+3,w
  2519     0221  1103               	clrz
  2520     0222  1803               	skipnc
  2521     0223  3E01               	addlw	1
  2522     0224  1903               	skipnz
  2523     0225  2A27               	goto	u2603
  2524     0226  07BD               	addwf	___flmul@prod+3,f
  2525     0227                     u2603:
  2526     0227  0828               	movf	___flmul@b+2,w
  2527     0228  00F2               	movwf	__Umul8_16@multiplicand
  2528     0229  082C               	movf	___flmul@a+2,w
  2529     022A  120A  158A  275F  120A  118A  	fcall	__Umul8_16
  2530     022F  0873               	movf	?__Umul8_16+1,w
  2531     0230  1283               	bcf	3,5	;RP0=0, select bank0
  2532     0231  1303               	bcf	3,6	;RP1=0, select bank0
  2533     0232  00BF               	movwf	___flmul@temp+1
  2534     0233  0872               	movf	?__Umul8_16,w
  2535     0234  00BE               	movwf	___flmul@temp
  2536     0235                     l1866:
  2537     0235  083E               	movf	___flmul@temp,w
  2538     0236  00AE               	movwf	??___flmul
  2539     0237  083F               	movf	___flmul@temp+1,w
  2540     0238  00AF               	movwf	??___flmul+1
  2541     0239  01B0               	clrf	??___flmul+2
  2542     023A  01B1               	clrf	??___flmul+3
  2543     023B  3008               	movlw	8
  2544     023C                     u2615:
  2545     023C  1003               	clrc
  2546     023D  0DAE               	rlf	??___flmul,f
  2547     023E  0DAF               	rlf	??___flmul+1,f
  2548     023F  0DB0               	rlf	??___flmul+2,f
  2549     0240  0DB1               	rlf	??___flmul+3,f
  2550     0241                     u2610:
  2551     0241  3EFF               	addlw	-1
  2552     0242  1D03               	skipz
  2553     0243  2A3C               	goto	u2615
  2554     0244  082E               	movf	??___flmul,w
  2555     0245  07BA               	addwf	___flmul@prod,f
  2556     0246  082F               	movf	??___flmul+1,w
  2557     0247  1103               	clrz
  2558     0248  1803               	skipnc
  2559     0249  3E01               	addlw	1
  2560     024A  1903               	skipnz
  2561     024B  2A4D               	goto	u2621
  2562     024C  07BB               	addwf	___flmul@prod+1,f
  2563     024D                     u2621:
  2564     024D  0830               	movf	??___flmul+2,w
  2565     024E  1103               	clrz
  2566     024F  1803               	skipnc
  2567     0250  3E01               	addlw	1
  2568     0251  1903               	skipnz
  2569     0252  2A54               	goto	u2622
  2570     0253  07BC               	addwf	___flmul@prod+2,f
  2571     0254                     u2622:
  2572     0254  0831               	movf	??___flmul+3,w
  2573     0255  1103               	clrz
  2574     0256  1803               	skipnc
  2575     0257  3E01               	addlw	1
  2576     0258  1903               	skipnz
  2577     0259  2A5B               	goto	u2623
  2578     025A  07BD               	addwf	___flmul@prod+3,f
  2579     025B                     u2623:
  2580     025B                     l1868:
  2581     025B  0835               	movf	___flmul@grs,w
  2582     025C  00AE               	movwf	??___flmul
  2583     025D  0836               	movf	___flmul@grs+1,w
  2584     025E  00AF               	movwf	??___flmul+1
  2585     025F  0837               	movf	___flmul@grs+2,w
  2586     0260  00B0               	movwf	??___flmul+2
  2587     0261  0838               	movf	___flmul@grs+3,w
  2588     0262  00B1               	movwf	??___flmul+3
  2589     0263  3018               	movlw	24
  2590     0264                     u2635:
  2591     0264  1003               	clrc
  2592     0265  0CB1               	rrf	??___flmul+3,f
  2593     0266  0CB0               	rrf	??___flmul+2,f
  2594     0267  0CAF               	rrf	??___flmul+1,f
  2595     0268  0CAE               	rrf	??___flmul,f
  2596     0269                     u2630:
  2597     0269  3EFF               	addlw	-1
  2598     026A  1D03               	skipz
  2599     026B  2A64               	goto	u2635
  2600     026C  082E               	movf	??___flmul,w
  2601     026D  07BA               	addwf	___flmul@prod,f
  2602     026E  082F               	movf	??___flmul+1,w
  2603     026F  1103               	clrz
  2604     0270  1803               	skipnc
  2605     0271  3E01               	addlw	1
  2606     0272  1903               	skipnz
  2607     0273  2A75               	goto	u2641
  2608     0274  07BB               	addwf	___flmul@prod+1,f
  2609     0275                     u2641:
  2610     0275  0830               	movf	??___flmul+2,w
  2611     0276  1103               	clrz
  2612     0277  1803               	skipnc
  2613     0278  3E01               	addlw	1
  2614     0279  1903               	skipnz
  2615     027A  2A7C               	goto	u2642
  2616     027B  07BC               	addwf	___flmul@prod+2,f
  2617     027C                     u2642:
  2618     027C  0831               	movf	??___flmul+3,w
  2619     027D  1103               	clrz
  2620     027E  1803               	skipnc
  2621     027F  3E01               	addlw	1
  2622     0280  1903               	skipnz
  2623     0281  2A83               	goto	u2643
  2624     0282  07BD               	addwf	___flmul@prod+3,f
  2625     0283                     u2643:
  2626     0283                     l1870:
  2627     0283  3008               	movlw	8
  2628     0284  00AE               	movwf	??___flmul
  2629     0285                     u2655:
  2630     0285  1003               	clrc
  2631     0286  0DB5               	rlf	___flmul@grs,f
  2632     0287  0DB6               	rlf	___flmul@grs+1,f
  2633     0288  0DB7               	rlf	___flmul@grs+2,f
  2634     0289  0DB8               	rlf	___flmul@grs+3,f
  2635     028A  0BAE               	decfsz	??___flmul,f
  2636     028B  2A85               	goto	u2655
  2637     028C                     l1872:
  2638     028C  0839               	movf	___flmul@bexp,w
  2639     028D  0734               	addwf	___flmul@aexp,w
  2640     028E  00AE               	movwf	??___flmul
  2641     028F  01AF               	clrf	??___flmul+1
  2642     0290  0DAF               	rlf	??___flmul+1,f
  2643     0291  082E               	movf	??___flmul,w
  2644     0292  3E82               	addlw	130
  2645     0293  00BE               	movwf	___flmul@temp
  2646     0294  082F               	movf	??___flmul+1,w
  2647     0295  1803               	skipnc
  2648     0296  3E01               	addlw	1
  2649     0297  3EFF               	addlw	255
  2650     0298  00BF               	movwf	___flmul@temp+1
  2651     0299  2AB7               	goto	l1884
  2652     029A                     l1874:
  2653     029A  3001               	movlw	1
  2654     029B  00AE               	movwf	??___flmul
  2655     029C                     u2665:
  2656     029C  1003               	clrc
  2657     029D  0DBA               	rlf	___flmul@prod,f
  2658     029E  0DBB               	rlf	___flmul@prod+1,f
  2659     029F  0DBC               	rlf	___flmul@prod+2,f
  2660     02A0  0DBD               	rlf	___flmul@prod+3,f
  2661     02A1  0BAE               	decfsz	??___flmul,f
  2662     02A2  2A9C               	goto	u2665
  2663     02A3                     l1876:
  2664     02A3  1FB8               	btfss	___flmul@grs+3,7
  2665     02A4  2AA6               	goto	u2671
  2666     02A5  2AA7               	goto	u2670
  2667     02A6                     u2671:
  2668     02A6  2AA8               	goto	l1880
  2669     02A7                     u2670:
  2670     02A7                     l1878:
  2671     02A7  143A               	bsf	___flmul@prod,0
  2672     02A8                     l1880:
  2673     02A8  3001               	movlw	1
  2674     02A9  00AE               	movwf	??___flmul
  2675     02AA                     u2685:
  2676     02AA  1003               	clrc
  2677     02AB  0DB5               	rlf	___flmul@grs,f
  2678     02AC  0DB6               	rlf	___flmul@grs+1,f
  2679     02AD  0DB7               	rlf	___flmul@grs+2,f
  2680     02AE  0DB8               	rlf	___flmul@grs+3,f
  2681     02AF  0BAE               	decfsz	??___flmul,f
  2682     02B0  2AAA               	goto	u2685
  2683     02B1                     l1882:
  2684     02B1  30FF               	movlw	255
  2685     02B2  07BE               	addwf	___flmul@temp,f
  2686     02B3  1803               	skipnc
  2687     02B4  0ABF               	incf	___flmul@temp+1,f
  2688     02B5  30FF               	movlw	255
  2689     02B6  07BF               	addwf	___flmul@temp+1,f
  2690     02B7                     l1884:
  2691     02B7  1FBC               	btfss	___flmul@prod+2,7
  2692     02B8  2ABA               	goto	u2691
  2693     02B9  2ABB               	goto	u2690
  2694     02BA                     u2691:
  2695     02BA  2A9A               	goto	l1874
  2696     02BB                     u2690:
  2697     02BB                     l1886:
  2698     02BB  01B4               	clrf	___flmul@aexp
  2699     02BC                     l1888:
  2700     02BC  1FB8               	btfss	___flmul@grs+3,7
  2701     02BD  2ABF               	goto	u2701
  2702     02BE  2AC0               	goto	u2700
  2703     02BF                     u2701:
  2704     02BF  2ADC               	goto	l1896
  2705     02C0                     u2700:
  2706     02C0                     l1890:
  2707     02C0  30FF               	movlw	255
  2708     02C1  0535               	andwf	___flmul@grs,w
  2709     02C2  00AE               	movwf	??___flmul
  2710     02C3  30FF               	movlw	255
  2711     02C4  0536               	andwf	___flmul@grs+1,w
  2712     02C5  00AF               	movwf	??___flmul+1
  2713     02C6  30FF               	movlw	255
  2714     02C7  0537               	andwf	___flmul@grs+2,w
  2715     02C8  00B0               	movwf	??___flmul+2
  2716     02C9  307F               	movlw	127
  2717     02CA  0538               	andwf	___flmul@grs+3,w
  2718     02CB  00B1               	movwf	??___flmul+3
  2719     02CC  0831               	movf	??___flmul+3,w
  2720     02CD  0430               	iorwf	??___flmul+2,w
  2721     02CE  042F               	iorwf	??___flmul+1,w
  2722     02CF  042E               	iorwf	??___flmul,w
  2723     02D0  1903               	skipnz
  2724     02D1  2AD3               	goto	u2711
  2725     02D2  2AD4               	goto	u2710
  2726     02D3                     u2711:
  2727     02D3  2AD7               	goto	l623
  2728     02D4                     u2710:
  2729     02D4                     l1892:
  2730     02D4  01B4               	clrf	___flmul@aexp
  2731     02D5  0AB4               	incf	___flmul@aexp,f
  2732     02D6  2ADC               	goto	l1896
  2733     02D7                     l623:
  2734     02D7  1C3A               	btfss	___flmul@prod,0
  2735     02D8  2ADA               	goto	u2721
  2736     02D9  2ADB               	goto	u2720
  2737     02DA                     u2721:
  2738     02DA  2ADC               	goto	l1896
  2739     02DB                     u2720:
  2740     02DB  2AD4               	goto	l1892
  2741     02DC                     l1896:
  2742     02DC  0834               	movf	___flmul@aexp,w
  2743     02DD  1903               	btfsc	3,2
  2744     02DE  2AE0               	goto	u2731
  2745     02DF  2AE1               	goto	u2730
  2746     02E0                     u2731:
  2747     02E0  2B12               	goto	l1906
  2748     02E1                     u2730:
  2749     02E1                     l1898:
  2750     02E1  3001               	movlw	1
  2751     02E2  07BA               	addwf	___flmul@prod,f
  2752     02E3  3000               	movlw	0
  2753     02E4  1803               	skipnc
  2754     02E5  3001               	movlw	1
  2755     02E6  07BB               	addwf	___flmul@prod+1,f
  2756     02E7  3000               	movlw	0
  2757     02E8  1803               	skipnc
  2758     02E9  3001               	movlw	1
  2759     02EA  07BC               	addwf	___flmul@prod+2,f
  2760     02EB  3000               	movlw	0
  2761     02EC  1803               	skipnc
  2762     02ED  3001               	movlw	1
  2763     02EE  07BD               	addwf	___flmul@prod+3,f
  2764     02EF                     l1900:
  2765     02EF  1C3D               	btfss	___flmul@prod+3,0
  2766     02F0  2AF2               	goto	u2741
  2767     02F1  2AF3               	goto	u2740
  2768     02F2                     u2741:
  2769     02F2  2B12               	goto	l1906
  2770     02F3                     u2740:
  2771     02F3                     l1902:
  2772     02F3  083A               	movf	___flmul@prod,w
  2773     02F4  00AE               	movwf	??___flmul
  2774     02F5  083B               	movf	___flmul@prod+1,w
  2775     02F6  00AF               	movwf	??___flmul+1
  2776     02F7  083C               	movf	___flmul@prod+2,w
  2777     02F8  00B0               	movwf	??___flmul+2
  2778     02F9  083D               	movf	___flmul@prod+3,w
  2779     02FA  00B1               	movwf	??___flmul+3
  2780     02FB  3001               	movlw	1
  2781     02FC  00B2               	movwf	??___flmul+4
  2782     02FD                     u2755:
  2783     02FD  0D31               	rlf	??___flmul+3,w
  2784     02FE  0CB1               	rrf	??___flmul+3,f
  2785     02FF  0CB0               	rrf	??___flmul+2,f
  2786     0300  0CAF               	rrf	??___flmul+1,f
  2787     0301  0CAE               	rrf	??___flmul,f
  2788     0302                     u2750:
  2789     0302  0BB2               	decfsz	??___flmul+4,f
  2790     0303  2AFD               	goto	u2755
  2791     0304  0831               	movf	??___flmul+3,w
  2792     0305  00BD               	movwf	___flmul@prod+3
  2793     0306  0830               	movf	??___flmul+2,w
  2794     0307  00BC               	movwf	___flmul@prod+2
  2795     0308  082F               	movf	??___flmul+1,w
  2796     0309  00BB               	movwf	___flmul@prod+1
  2797     030A  082E               	movf	??___flmul,w
  2798     030B  00BA               	movwf	___flmul@prod
  2799     030C                     l1904:
  2800     030C  3001               	movlw	1
  2801     030D  07BE               	addwf	___flmul@temp,f
  2802     030E  1803               	skipnc
  2803     030F  0ABF               	incf	___flmul@temp+1,f
  2804     0310  3000               	movlw	0
  2805     0311  07BF               	addwf	___flmul@temp+1,f
  2806     0312                     l1906:
  2807     0312  083F               	movf	___flmul@temp+1,w
  2808     0313  3A80               	xorlw	128
  2809     0314  00FF               	movwf	btemp+1
  2810     0315  3080               	movlw	128
  2811     0316  027F               	subwf	btemp+1,w
  2812     0317  1D03               	skipz
  2813     0318  2B1B               	goto	u2765
  2814     0319  30FF               	movlw	255
  2815     031A  023E               	subwf	___flmul@temp,w
  2816     031B                     u2765:
  2817     031B  1C03               	skipc
  2818     031C  2B1E               	goto	u2761
  2819     031D  2B1F               	goto	u2760
  2820     031E                     u2761:
  2821     031E  2B2A               	goto	l1910
  2822     031F                     u2760:
  2823     031F                     l1908:
  2824     031F  307F               	movlw	127
  2825     0320  1283               	bcf	3,5	;RP0=0, select bank0
  2826     0321  1303               	bcf	3,6	;RP1=0, select bank0
  2827     0322  00BD               	movwf	___flmul@prod+3
  2828     0323  3080               	movlw	128
  2829     0324  00BC               	movwf	___flmul@prod+2
  2830     0325  3000               	movlw	0
  2831     0326  00BB               	movwf	___flmul@prod+1
  2832     0327  3000               	movlw	0
  2833     0328  00BA               	movwf	___flmul@prod
  2834     0329  2B5B               	goto	l629
  2835     032A                     l1910:
  2836     032A  1283               	bcf	3,5	;RP0=0, select bank0
  2837     032B  1303               	bcf	3,6	;RP1=0, select bank0
  2838     032C  083F               	movf	___flmul@temp+1,w
  2839     032D  3A80               	xorlw	128
  2840     032E  00FF               	movwf	btemp+1
  2841     032F  3080               	movlw	128
  2842     0330  027F               	subwf	btemp+1,w
  2843     0331  1D03               	skipz
  2844     0332  2B35               	goto	u2775
  2845     0333  3001               	movlw	1
  2846     0334  023E               	subwf	___flmul@temp,w
  2847     0335                     u2775:
  2848     0335  1803               	skipnc
  2849     0336  2B38               	goto	u2771
  2850     0337  2B39               	goto	u2770
  2851     0338                     u2771:
  2852     0338  2B45               	goto	l1916
  2853     0339                     u2770:
  2854     0339                     l1912:
  2855     0339  3000               	movlw	0
  2856     033A  1283               	bcf	3,5	;RP0=0, select bank0
  2857     033B  1303               	bcf	3,6	;RP1=0, select bank0
  2858     033C  00BD               	movwf	___flmul@prod+3
  2859     033D  3000               	movlw	0
  2860     033E  00BC               	movwf	___flmul@prod+2
  2861     033F  3000               	movlw	0
  2862     0340  00BB               	movwf	___flmul@prod+1
  2863     0341  3000               	movlw	0
  2864     0342  00BA               	movwf	___flmul@prod
  2865     0343                     l1914:
  2866     0343  01B3               	clrf	___flmul@sign
  2867     0344  2B5B               	goto	l629
  2868     0345                     l1916:
  2869     0345  1283               	bcf	3,5	;RP0=0, select bank0
  2870     0346  1303               	bcf	3,6	;RP1=0, select bank0
  2871     0347  083E               	movf	___flmul@temp,w
  2872     0348  00B9               	movwf	___flmul@bexp
  2873     0349  30FF               	movlw	255
  2874     034A  05BA               	andwf	___flmul@prod,f
  2875     034B  30FF               	movlw	255
  2876     034C  05BB               	andwf	___flmul@prod+1,f
  2877     034D  307F               	movlw	127
  2878     034E  05BC               	andwf	___flmul@prod+2,f
  2879     034F  3000               	movlw	0
  2880     0350  05BD               	andwf	___flmul@prod+3,f
  2881     0351                     l1918:
  2882     0351  1C39               	btfss	___flmul@bexp,0
  2883     0352  2B54               	goto	u2781
  2884     0353  2B55               	goto	u2780
  2885     0354                     u2781:
  2886     0354  2B56               	goto	l1922
  2887     0355                     u2780:
  2888     0355                     l1920:
  2889     0355  17BC               	bsf	___flmul@prod+2,7
  2890     0356                     l1922:
  2891     0356  0839               	movf	___flmul@bexp,w
  2892     0357  00AE               	movwf	??___flmul
  2893     0358  1003               	clrc
  2894     0359  0C2E               	rrf	??___flmul,w
  2895     035A  00BD               	movwf	___flmul@prod+3
  2896     035B                     l629:
  2897     035B  0833               	movf	___flmul@sign,w
  2898     035C  00AE               	movwf	??___flmul
  2899     035D  082E               	movf	??___flmul,w
  2900     035E  04BD               	iorwf	___flmul@prod+3,f
  2901     035F                     l1924:
  2902     035F  083D               	movf	___flmul@prod+3,w
  2903     0360  00A9               	movwf	?___flmul+3
  2904     0361  083C               	movf	___flmul@prod+2,w
  2905     0362  00A8               	movwf	?___flmul+2
  2906     0363  083B               	movf	___flmul@prod+1,w
  2907     0364  00A7               	movwf	?___flmul+1
  2908     0365  083A               	movf	___flmul@prod,w
  2909     0366  00A6               	movwf	?___flmul
  2910     0367                     l617:
  2911     0367  0008               	return
  2912     0368                     __end_of___flmul:
  2913                           
  2914                           	psect	text11
  2915     0F5F                     __ptext11:	
  2916 ;; *************** function __Umul8_16 *****************
  2917 ;; Defined at:
  2918 ;;		line 4 in file "C:\Program Files\Microchip\xc8\v2.40\pic\sources\c90\common\Umul8_16.c"
  2919 ;; Parameters:    Size  Location     Type
  2920 ;;  multiplier      1    wreg     unsigned char 
  2921 ;;  multiplicand    1    2[COMMON] unsigned char 
  2922 ;; Auto vars:     Size  Location     Type
  2923 ;;  multiplier      1    4[BANK0 ] unsigned char 
  2924 ;;  word_mpld       2    2[BANK0 ] unsigned int 
  2925 ;;  product         2    0[BANK0 ] unsigned int 
  2926 ;; Return value:  Size  Location     Type
  2927 ;;                  2    2[COMMON] unsigned int 
  2928 ;; Registers used:
  2929 ;;		wreg, status,2, status,0
  2930 ;; Tracked objects:
  2931 ;;		On entry : 0/0
  2932 ;;		On exit  : 0/0
  2933 ;;		Unchanged: 0/0
  2934 ;; Data sizes:     COMMON   BANK0   BANK1   BANK3   BANK2
  2935 ;;      Params:         2       0       0       0       0
  2936 ;;      Locals:         0       5       0       0       0
  2937 ;;      Temps:          2       0       0       0       0
  2938 ;;      Totals:         4       5       0       0       0
  2939 ;;Total ram usage:        9 bytes
  2940 ;; Hardware stack levels used: 1
  2941 ;; Hardware stack levels required when called: 1
  2942 ;; This function calls:
  2943 ;;		Nothing
  2944 ;; This function is called by:
  2945 ;;		___flmul
  2946 ;; This function uses a non-reentrant model
  2947 ;;
  2948                           
  2949     0F5F                     __Umul8_16:	
  2950                           ;psect for function __Umul8_16
  2951                           
  2952                           
  2953                           ;incstack = 0
  2954                           ; Regs used in __Umul8_16: [wreg+status,2+status,0]
  2955                           ;__Umul8_16@multiplier stored from wreg
  2956     0F5F  1283               	bcf	3,5	;RP0=0, select bank0
  2957     0F60  1303               	bcf	3,6	;RP1=0, select bank0
  2958     0F61  00A4               	movwf	__Umul8_16@multiplier
  2959     0F62                     l1774:
  2960     0F62  01A0               	clrf	__Umul8_16@product
  2961     0F63  01A1               	clrf	__Umul8_16@product+1
  2962     0F64                     l1776:
  2963     0F64  0872               	movf	__Umul8_16@multiplicand,w
  2964     0F65  00F4               	movwf	??__Umul8_16
  2965     0F66  01F5               	clrf	??__Umul8_16+1
  2966     0F67  0874               	movf	??__Umul8_16,w
  2967     0F68  00A2               	movwf	__Umul8_16@word_mpld
  2968     0F69  0875               	movf	??__Umul8_16+1,w
  2969     0F6A  00A3               	movwf	__Umul8_16@word_mpld+1
  2970     0F6B                     l1778:
  2971     0F6B  1C24               	btfss	__Umul8_16@multiplier,0
  2972     0F6C  2F6E               	goto	u2391
  2973     0F6D  2F6F               	goto	u2390
  2974     0F6E                     u2391:
  2975     0F6E  2F75               	goto	l636
  2976     0F6F                     u2390:
  2977     0F6F                     l1780:
  2978     0F6F  0822               	movf	__Umul8_16@word_mpld,w
  2979     0F70  07A0               	addwf	__Umul8_16@product,f
  2980     0F71  1803               	skipnc
  2981     0F72  0AA1               	incf	__Umul8_16@product+1,f
  2982     0F73  0823               	movf	__Umul8_16@word_mpld+1,w
  2983     0F74  07A1               	addwf	__Umul8_16@product+1,f
  2984     0F75                     l636:
  2985     0F75  3001               	movlw	1
  2986     0F76                     u2405:
  2987     0F76  1003               	clrc
  2988     0F77  0DA2               	rlf	__Umul8_16@word_mpld,f
  2989     0F78  0DA3               	rlf	__Umul8_16@word_mpld+1,f
  2990     0F79  3EFF               	addlw	-1
  2991     0F7A  1D03               	skipz
  2992     0F7B  2F76               	goto	u2405
  2993     0F7C  1003               	clrc
  2994     0F7D  0CA4               	rrf	__Umul8_16@multiplier,f
  2995     0F7E                     l1782:
  2996     0F7E  0824               	movf	__Umul8_16@multiplier,w
  2997     0F7F  1D03               	btfss	3,2
  2998     0F80  2F82               	goto	u2411
  2999     0F81  2F83               	goto	u2410
  3000     0F82                     u2411:
  3001     0F82  2F6B               	goto	l1778
  3002     0F83                     u2410:
  3003     0F83                     l1784:
  3004     0F83  0821               	movf	__Umul8_16@product+1,w
  3005     0F84  00F3               	movwf	?__Umul8_16+1
  3006     0F85  0820               	movf	__Umul8_16@product,w
  3007     0F86  00F2               	movwf	?__Umul8_16
  3008     0F87                     l638:
  3009     0F87  0008               	return
  3010     0F88                     __end_of__Umul8_16:
  3011                           
  3012                           	psect	text12
  3013     0368                     __ptext12:	
  3014 ;; *************** function ___fladd *****************
  3015 ;; Defined at:
  3016 ;;		line 10 in file "C:\Program Files\Microchip\xc8\v2.40\pic\sources\c90\common\sprcadd.c"
  3017 ;; Parameters:    Size  Location     Type
  3018 ;;  b               4   32[BANK0 ] unsigned int 
  3019 ;;  a               4   36[BANK0 ] unsigned int 
  3020 ;; Auto vars:     Size  Location     Type
  3021 ;;  grs             1   51[BANK0 ] unsigned char 
  3022 ;;  bexp            1   50[BANK0 ] unsigned char 
  3023 ;;  aexp            1   49[BANK0 ] unsigned char 
  3024 ;;  signs           1   48[BANK0 ] unsigned char 
  3025 ;; Return value:  Size  Location     Type
  3026 ;;                  4   32[BANK0 ] unsigned char 
  3027 ;; Registers used:
  3028 ;;		wreg, status,2, status,0, btemp+1
  3029 ;; Tracked objects:
  3030 ;;		On entry : 0/0
  3031 ;;		On exit  : 0/0
  3032 ;;		Unchanged: 0/0
  3033 ;; Data sizes:     COMMON   BANK0   BANK1   BANK3   BANK2
  3034 ;;      Params:         0       8       0       0       0
  3035 ;;      Locals:         0       4       0       0       0
  3036 ;;      Temps:          0       8       0       0       0
  3037 ;;      Totals:         0      20       0       0       0
  3038 ;;Total ram usage:       20 bytes
  3039 ;; Hardware stack levels used: 1
  3040 ;; Hardware stack levels required when called: 1
  3041 ;; This function calls:
  3042 ;;		Nothing
  3043 ;; This function is called by:
  3044 ;;		_mapeo
  3045 ;; This function uses a non-reentrant model
  3046 ;;
  3047                           
  3048     0368                     ___fladd:	
  3049                           ;psect for function ___fladd
  3050                           
  3051     0368                     l1304:	
  3052                           ;incstack = 0
  3053                           ; Regs used in ___fladd: [wreg+status,2+status,0+btemp+1]
  3054                           
  3055     0368  1283               	bcf	3,5	;RP0=0, select bank0
  3056     0369  1303               	bcf	3,6	;RP1=0, select bank0
  3057     036A  0843               	movf	___fladd@b+3,w
  3058     036B  3980               	andlw	128
  3059     036C  00D0               	movwf	___fladd@signs
  3060     036D                     l1306:
  3061     036D  0843               	movf	___fladd@b+3,w
  3062     036E  00C8               	movwf	??___fladd
  3063     036F  0748               	addwf	??___fladd,w
  3064     0370  00D2               	movwf	___fladd@bexp
  3065     0371                     l1308:
  3066     0371  1FC2               	btfss	___fladd@b+2,7
  3067     0372  2B74               	goto	u1331
  3068     0373  2B75               	goto	u1330
  3069     0374                     u1331:
  3070     0374  2B76               	goto	l1312
  3071     0375                     u1330:
  3072     0375                     l1310:
  3073     0375  1452               	bsf	___fladd@bexp,0
  3074     0376                     l1312:
  3075     0376  0852               	movf	___fladd@bexp,w
  3076     0377  1903               	btfsc	3,2
  3077     0378  2B7A               	goto	u1341
  3078     0379  2B7B               	goto	u1340
  3079     037A                     u1341:
  3080     037A  2B8B               	goto	l1322
  3081     037B                     u1340:
  3082     037B                     l1314:
  3083     037B  0A52               	incf	___fladd@bexp,w
  3084     037C  1D03               	btfss	3,2
  3085     037D  2B7F               	goto	u1351
  3086     037E  2B80               	goto	u1350
  3087     037F                     u1351:
  3088     037F  2B88               	goto	l1318
  3089     0380                     u1350:
  3090     0380                     l1316:
  3091     0380  3000               	movlw	0
  3092     0381  00C3               	movwf	___fladd@b+3
  3093     0382  3000               	movlw	0
  3094     0383  00C2               	movwf	___fladd@b+2
  3095     0384  3000               	movlw	0
  3096     0385  00C1               	movwf	___fladd@b+1
  3097     0386  3000               	movlw	0
  3098     0387  00C0               	movwf	___fladd@b
  3099     0388                     l1318:
  3100     0388  17C2               	bsf	___fladd@b+2,7
  3101     0389                     l1320:
  3102     0389  01C3               	clrf	___fladd@b+3
  3103     038A  2B93               	goto	l1324
  3104     038B                     l1322:
  3105     038B  3000               	movlw	0
  3106     038C  00C3               	movwf	___fladd@b+3
  3107     038D  3000               	movlw	0
  3108     038E  00C2               	movwf	___fladd@b+2
  3109     038F  3000               	movlw	0
  3110     0390  00C1               	movwf	___fladd@b+1
  3111     0391  3000               	movlw	0
  3112     0392  00C0               	movwf	___fladd@b
  3113     0393                     l1324:
  3114     0393  0847               	movf	___fladd@a+3,w
  3115     0394  3980               	andlw	128
  3116     0395  00D1               	movwf	___fladd@aexp
  3117     0396                     l1326:
  3118     0396  0851               	movf	___fladd@aexp,w
  3119     0397  0650               	xorwf	___fladd@signs,w
  3120     0398  1903               	skipnz
  3121     0399  2B9B               	goto	u1361
  3122     039A  2B9C               	goto	u1360
  3123     039B                     u1361:
  3124     039B  2B9D               	goto	l1330
  3125     039C                     u1360:
  3126     039C                     l1328:
  3127     039C  1750               	bsf	___fladd@signs,6
  3128     039D                     l1330:
  3129     039D  0847               	movf	___fladd@a+3,w
  3130     039E  00C8               	movwf	??___fladd
  3131     039F  0748               	addwf	??___fladd,w
  3132     03A0  00D1               	movwf	___fladd@aexp
  3133     03A1                     l1332:
  3134     03A1  1FC6               	btfss	___fladd@a+2,7
  3135     03A2  2BA4               	goto	u1371
  3136     03A3  2BA5               	goto	u1370
  3137     03A4                     u1371:
  3138     03A4  2BA6               	goto	l1336
  3139     03A5                     u1370:
  3140     03A5                     l1334:
  3141     03A5  1451               	bsf	___fladd@aexp,0
  3142     03A6                     l1336:
  3143     03A6  0851               	movf	___fladd@aexp,w
  3144     03A7  1903               	btfsc	3,2
  3145     03A8  2BAA               	goto	u1381
  3146     03A9  2BAB               	goto	u1380
  3147     03AA                     u1381:
  3148     03AA  2BBB               	goto	l1346
  3149     03AB                     u1380:
  3150     03AB                     l1338:
  3151     03AB  0A51               	incf	___fladd@aexp,w
  3152     03AC  1D03               	btfss	3,2
  3153     03AD  2BAF               	goto	u1391
  3154     03AE  2BB0               	goto	u1390
  3155     03AF                     u1391:
  3156     03AF  2BB8               	goto	l1342
  3157     03B0                     u1390:
  3158     03B0                     l1340:
  3159     03B0  3000               	movlw	0
  3160     03B1  00C7               	movwf	___fladd@a+3
  3161     03B2  3000               	movlw	0
  3162     03B3  00C6               	movwf	___fladd@a+2
  3163     03B4  3000               	movlw	0
  3164     03B5  00C5               	movwf	___fladd@a+1
  3165     03B6  3000               	movlw	0
  3166     03B7  00C4               	movwf	___fladd@a
  3167     03B8                     l1342:
  3168     03B8  17C6               	bsf	___fladd@a+2,7
  3169     03B9                     l1344:
  3170     03B9  01C7               	clrf	___fladd@a+3
  3171     03BA  2BC3               	goto	l521
  3172     03BB                     l1346:
  3173     03BB  3000               	movlw	0
  3174     03BC  00C7               	movwf	___fladd@a+3
  3175     03BD  3000               	movlw	0
  3176     03BE  00C6               	movwf	___fladd@a+2
  3177     03BF  3000               	movlw	0
  3178     03C0  00C5               	movwf	___fladd@a+1
  3179     03C1  3000               	movlw	0
  3180     03C2  00C4               	movwf	___fladd@a
  3181     03C3                     l521:
  3182     03C3  0852               	movf	___fladd@bexp,w
  3183     03C4  0251               	subwf	___fladd@aexp,w
  3184     03C5  1803               	skipnc
  3185     03C6  2BC8               	goto	u1401
  3186     03C7  2BC9               	goto	u1400
  3187     03C8                     u1401:
  3188     03C8  2BEF               	goto	l1382
  3189     03C9                     u1400:
  3190     03C9                     l1348:
  3191     03C9  1F50               	btfss	___fladd@signs,6
  3192     03CA  2BCC               	goto	u1411
  3193     03CB  2BCD               	goto	u1410
  3194     03CC                     u1411:
  3195     03CC  2BD1               	goto	l1352
  3196     03CD                     u1410:
  3197     03CD                     l1350:
  3198     03CD  3080               	movlw	128
  3199     03CE  00C8               	movwf	??___fladd
  3200     03CF  0848               	movf	??___fladd,w
  3201     03D0  06D0               	xorwf	___fladd@signs,f
  3202     03D1                     l1352:
  3203     03D1  0852               	movf	___fladd@bexp,w
  3204     03D2  00D3               	movwf	___fladd@grs
  3205     03D3                     l1354:
  3206     03D3  0851               	movf	___fladd@aexp,w
  3207     03D4  00D2               	movwf	___fladd@bexp
  3208     03D5                     l1356:
  3209     03D5  0853               	movf	___fladd@grs,w
  3210     03D6  00D1               	movwf	___fladd@aexp
  3211     03D7                     l1358:
  3212     03D7  0840               	movf	___fladd@b,w
  3213     03D8  00D3               	movwf	___fladd@grs
  3214     03D9                     l1360:
  3215     03D9  0844               	movf	___fladd@a,w
  3216     03DA  00C0               	movwf	___fladd@b
  3217     03DB                     l1362:
  3218     03DB  0853               	movf	___fladd@grs,w
  3219     03DC  00C4               	movwf	___fladd@a
  3220     03DD                     l1364:
  3221     03DD  0841               	movf	___fladd@b+1,w
  3222     03DE  00D3               	movwf	___fladd@grs
  3223     03DF                     l1366:
  3224     03DF  0845               	movf	___fladd@a+1,w
  3225     03E0  00C1               	movwf	___fladd@b+1
  3226     03E1                     l1368:
  3227     03E1  0853               	movf	___fladd@grs,w
  3228     03E2  00C5               	movwf	___fladd@a+1
  3229     03E3                     l1370:
  3230     03E3  0842               	movf	___fladd@b+2,w
  3231     03E4  00D3               	movwf	___fladd@grs
  3232     03E5                     l1372:
  3233     03E5  0846               	movf	___fladd@a+2,w
  3234     03E6  00C2               	movwf	___fladd@b+2
  3235     03E7                     l1374:
  3236     03E7  0853               	movf	___fladd@grs,w
  3237     03E8  00C6               	movwf	___fladd@a+2
  3238     03E9                     l1376:
  3239     03E9  0843               	movf	___fladd@b+3,w
  3240     03EA  00D3               	movwf	___fladd@grs
  3241     03EB                     l1378:
  3242     03EB  0847               	movf	___fladd@a+3,w
  3243     03EC  00C3               	movwf	___fladd@b+3
  3244     03ED                     l1380:
  3245     03ED  0853               	movf	___fladd@grs,w
  3246     03EE  00C7               	movwf	___fladd@a+3
  3247     03EF                     l1382:
  3248     03EF  01D3               	clrf	___fladd@grs
  3249     03F0                     l1384:
  3250     03F0  0851               	movf	___fladd@aexp,w
  3251     03F1  00C8               	movwf	??___fladd
  3252     03F2  01C9               	clrf	??___fladd+1
  3253     03F3  0849               	movf	??___fladd+1,w
  3254     03F4  00CB               	movwf	??___fladd+3
  3255     03F5  0852               	movf	___fladd@bexp,w
  3256     03F6  0248               	subwf	??___fladd,w
  3257     03F7  00CA               	movwf	??___fladd+2
  3258     03F8  1C03               	skipc
  3259     03F9  03CB               	decf	??___fladd+3,f
  3260     03FA  084B               	movf	??___fladd+3,w
  3261     03FB  3A80               	xorlw	128
  3262     03FC  00FF               	movwf	btemp+1
  3263     03FD  3080               	movlw	128
  3264     03FE  027F               	subwf	btemp+1,w
  3265     03FF  1D03               	skipz
  3266     0400  2C03               	goto	u1425
  3267     0401  301A               	movlw	26
  3268     0402  024A               	subwf	??___fladd+2,w
  3269     0403                     u1425:
  3270     0403  1C03               	skipc
  3271     0404  2C06               	goto	u1421
  3272     0405  2C07               	goto	u1420
  3273     0406                     u1421:
  3274     0406  2C3E               	goto	l1400
  3275     0407                     u1420:
  3276     0407                     l1386:
  3277     0407  1283               	bcf	3,5	;RP0=0, select bank0
  3278     0408  1303               	bcf	3,6	;RP1=0, select bank0
  3279     0409  0843               	movf	___fladd@b+3,w
  3280     040A  0442               	iorwf	___fladd@b+2,w
  3281     040B  0441               	iorwf	___fladd@b+1,w
  3282     040C  0440               	iorwf	___fladd@b,w
  3283     040D  1D03               	skipz
  3284     040E  2C10               	goto	u1431
  3285     040F  2C12               	goto	u1430
  3286     0410                     u1431:
  3287     0410  3001               	movlw	1
  3288     0411  2C13               	goto	u1440
  3289     0412                     u1430:
  3290     0412  3000               	movlw	0
  3291     0413                     u1440:
  3292     0413  00D3               	movwf	___fladd@grs
  3293     0414  3000               	movlw	0
  3294     0415  00C3               	movwf	___fladd@b+3
  3295     0416  3000               	movlw	0
  3296     0417  00C2               	movwf	___fladd@b+2
  3297     0418  3000               	movlw	0
  3298     0419  00C1               	movwf	___fladd@b+1
  3299     041A  3000               	movlw	0
  3300     041B  00C0               	movwf	___fladd@b
  3301     041C  0851               	movf	___fladd@aexp,w
  3302     041D  00D2               	movwf	___fladd@bexp
  3303     041E  2C46               	goto	l525
  3304     041F                     l527:
  3305     041F  1C53               	btfss	___fladd@grs,0
  3306     0420  2C22               	goto	u1451
  3307     0421  2C23               	goto	u1450
  3308     0422                     u1451:
  3309     0422  2C2A               	goto	l1390
  3310     0423                     u1450:
  3311     0423                     l1388:
  3312     0423  0853               	movf	___fladd@grs,w
  3313     0424  00C8               	movwf	??___fladd
  3314     0425  1003               	clrc
  3315     0426  0C48               	rrf	??___fladd,w
  3316     0427  3801               	iorlw	1
  3317     0428  00D3               	movwf	___fladd@grs
  3318     0429  2C2C               	goto	l1392
  3319     042A                     l1390:
  3320     042A  1003               	clrc
  3321     042B  0CD3               	rrf	___fladd@grs,f
  3322     042C                     l1392:
  3323     042C  1C40               	btfss	___fladd@b,0
  3324     042D  2C2F               	goto	u1461
  3325     042E  2C30               	goto	u1460
  3326     042F                     u1461:
  3327     042F  2C31               	goto	l1396
  3328     0430                     u1460:
  3329     0430                     l1394:
  3330     0430  17D3               	bsf	___fladd@grs,7
  3331     0431                     l1396:
  3332     0431  3001               	movlw	1
  3333     0432  00C8               	movwf	??___fladd
  3334     0433                     u1475:
  3335     0433  0D43               	rlf	___fladd@b+3,w
  3336     0434  0CC3               	rrf	___fladd@b+3,f
  3337     0435  0CC2               	rrf	___fladd@b+2,f
  3338     0436  0CC1               	rrf	___fladd@b+1,f
  3339     0437  0CC0               	rrf	___fladd@b,f
  3340     0438  0BC8               	decfsz	??___fladd& (0+127),f
  3341     0439  2C33               	goto	u1475
  3342     043A                     l1398:
  3343     043A  3001               	movlw	1
  3344     043B  00C8               	movwf	??___fladd
  3345     043C  0848               	movf	??___fladd,w
  3346     043D  07D2               	addwf	___fladd@bexp,f
  3347     043E                     l1400:
  3348     043E  1283               	bcf	3,5	;RP0=0, select bank0
  3349     043F  1303               	bcf	3,6	;RP1=0, select bank0
  3350     0440  0851               	movf	___fladd@aexp,w
  3351     0441  0252               	subwf	___fladd@bexp,w
  3352     0442  1C03               	skipc
  3353     0443  2C45               	goto	u1481
  3354     0444  2C46               	goto	u1480
  3355     0445                     u1481:
  3356     0445  2C1F               	goto	l527
  3357     0446                     u1480:
  3358     0446                     l525:
  3359     0446  1B50               	btfsc	___fladd@signs,6
  3360     0447  2C49               	goto	u1491
  3361     0448  2C4A               	goto	u1490
  3362     0449                     u1491:
  3363     0449  2C93               	goto	l1426
  3364     044A                     u1490:
  3365     044A                     l1402:
  3366     044A  0852               	movf	___fladd@bexp,w
  3367     044B  1D03               	btfss	3,2
  3368     044C  2C4E               	goto	u1501
  3369     044D  2C4F               	goto	u1500
  3370     044E                     u1501:
  3371     044E  2C58               	goto	l1408
  3372     044F                     u1500:
  3373     044F                     l1404:
  3374     044F  3000               	movlw	0
  3375     0450  00C3               	movwf	?___fladd+3
  3376     0451  3000               	movlw	0
  3377     0452  00C2               	movwf	?___fladd+2
  3378     0453  3000               	movlw	0
  3379     0454  00C1               	movwf	?___fladd+1
  3380     0455  3000               	movlw	0
  3381     0456  00C0               	movwf	?___fladd
  3382     0457  2DBF               	goto	l534
  3383     0458                     l1408:
  3384     0458  0844               	movf	___fladd@a,w
  3385     0459  07C0               	addwf	___fladd@b,f
  3386     045A  0845               	movf	___fladd@a+1,w
  3387     045B  1103               	clrz
  3388     045C  1803               	skipnc
  3389     045D  3E01               	addlw	1
  3390     045E  1903               	skipnz
  3391     045F  2C61               	goto	u1511
  3392     0460  07C1               	addwf	___fladd@b+1,f
  3393     0461                     u1511:
  3394     0461  0846               	movf	___fladd@a+2,w
  3395     0462  1103               	clrz
  3396     0463  1803               	skipnc
  3397     0464  3E01               	addlw	1
  3398     0465  1903               	skipnz
  3399     0466  2C68               	goto	u1512
  3400     0467  07C2               	addwf	___fladd@b+2,f
  3401     0468                     u1512:
  3402     0468  0847               	movf	___fladd@a+3,w
  3403     0469  1103               	clrz
  3404     046A  1803               	skipnc
  3405     046B  3E01               	addlw	1
  3406     046C  1903               	skipnz
  3407     046D  2C6F               	goto	u1513
  3408     046E  07C3               	addwf	___fladd@b+3,f
  3409     046F                     u1513:
  3410     046F                     l1410:
  3411     046F  1C43               	btfss	___fladd@b+3,0
  3412     0470  2C72               	goto	u1521
  3413     0471  2C73               	goto	u1520
  3414     0472                     u1521:
  3415     0472  2D47               	goto	l1460
  3416     0473                     u1520:
  3417     0473                     l1412:
  3418     0473  1C53               	btfss	___fladd@grs,0
  3419     0474  2C76               	goto	u1531
  3420     0475  2C77               	goto	u1530
  3421     0476                     u1531:
  3422     0476  2C7E               	goto	l1416
  3423     0477                     u1530:
  3424     0477                     l1414:
  3425     0477  0853               	movf	___fladd@grs,w
  3426     0478  00C8               	movwf	??___fladd
  3427     0479  1003               	clrc
  3428     047A  0C48               	rrf	??___fladd,w
  3429     047B  3801               	iorlw	1
  3430     047C  00D3               	movwf	___fladd@grs
  3431     047D  2C80               	goto	l1418
  3432     047E                     l1416:
  3433     047E  1003               	clrc
  3434     047F  0CD3               	rrf	___fladd@grs,f
  3435     0480                     l1418:
  3436     0480  1C40               	btfss	___fladd@b,0
  3437     0481  2C83               	goto	u1541
  3438     0482  2C84               	goto	u1540
  3439     0483                     u1541:
  3440     0483  2C85               	goto	l1422
  3441     0484                     u1540:
  3442     0484                     l1420:
  3443     0484  17D3               	bsf	___fladd@grs,7
  3444     0485                     l1422:
  3445     0485  3001               	movlw	1
  3446     0486  00C8               	movwf	??___fladd
  3447     0487                     u1555:
  3448     0487  0D43               	rlf	___fladd@b+3,w
  3449     0488  0CC3               	rrf	___fladd@b+3,f
  3450     0489  0CC2               	rrf	___fladd@b+2,f
  3451     048A  0CC1               	rrf	___fladd@b+1,f
  3452     048B  0CC0               	rrf	___fladd@b,f
  3453     048C  0BC8               	decfsz	??___fladd& (0+127),f
  3454     048D  2C87               	goto	u1555
  3455     048E                     l1424:
  3456     048E  3001               	movlw	1
  3457     048F  00C8               	movwf	??___fladd
  3458     0490  0848               	movf	??___fladd,w
  3459     0491  07D2               	addwf	___fladd@bexp,f
  3460     0492  2D47               	goto	l1460
  3461     0493                     l1426:
  3462     0493  0843               	movf	___fladd@b+3,w
  3463     0494  3A80               	xorlw	128
  3464     0495  00FF               	movwf	btemp+1
  3465     0496  0847               	movf	___fladd@a+3,w
  3466     0497  3A80               	xorlw	128
  3467     0498  027F               	subwf	btemp+1,w
  3468     0499  1D03               	skipz
  3469     049A  2CA5               	goto	u1563
  3470     049B  0846               	movf	___fladd@a+2,w
  3471     049C  0242               	subwf	___fladd@b+2,w
  3472     049D  1D03               	skipz
  3473     049E  2CA5               	goto	u1563
  3474     049F  0845               	movf	___fladd@a+1,w
  3475     04A0  0241               	subwf	___fladd@b+1,w
  3476     04A1  1D03               	skipz
  3477     04A2  2CA5               	goto	u1563
  3478     04A3  0844               	movf	___fladd@a,w
  3479     04A4  0240               	subwf	___fladd@b,w
  3480     04A5                     u1563:
  3481     04A5  1803               	skipnc
  3482     04A6  2CA8               	goto	u1561
  3483     04A7  2CA9               	goto	u1560
  3484     04A8                     u1561:
  3485     04A8  2D01               	goto	l1436
  3486     04A9                     u1560:
  3487     04A9                     l1428:
  3488     04A9  30FF               	movlw	255
  3489     04AA  00C8               	movwf	??___fladd
  3490     04AB  30FF               	movlw	255
  3491     04AC  00C9               	movwf	??___fladd+1
  3492     04AD  30FF               	movlw	255
  3493     04AE  00CA               	movwf	??___fladd+2
  3494     04AF  30FF               	movlw	255
  3495     04B0  00CB               	movwf	??___fladd+3
  3496     04B1  0844               	movf	___fladd@a,w
  3497     04B2  00CC               	movwf	??___fladd+4
  3498     04B3  0845               	movf	___fladd@a+1,w
  3499     04B4  00CD               	movwf	??___fladd+5
  3500     04B5  0846               	movf	___fladd@a+2,w
  3501     04B6  00CE               	movwf	??___fladd+6
  3502     04B7  0847               	movf	___fladd@a+3,w
  3503     04B8  00CF               	movwf	??___fladd+7
  3504     04B9  0840               	movf	___fladd@b,w
  3505     04BA  02CC               	subwf	??___fladd+4,f
  3506     04BB  0841               	movf	___fladd@b+1,w
  3507     04BC  1C03               	skipc
  3508     04BD  0F41               	incfsz	___fladd@b+1,w
  3509     04BE  2CC0               	goto	u1571
  3510     04BF  2CC1               	goto	u1572
  3511     04C0                     u1571:
  3512     04C0  02CD               	subwf	??___fladd+5,f
  3513     04C1                     u1572:
  3514     04C1  0842               	movf	___fladd@b+2,w
  3515     04C2  1C03               	skipc
  3516     04C3  0F42               	incfsz	___fladd@b+2,w
  3517     04C4  2CC6               	goto	u1573
  3518     04C5  2CC7               	goto	u1574
  3519     04C6                     u1573:
  3520     04C6  02CE               	subwf	??___fladd+6,f
  3521     04C7                     u1574:
  3522     04C7  0843               	movf	___fladd@b+3,w
  3523     04C8  1C03               	skipc
  3524     04C9  0F43               	incfsz	___fladd@b+3,w
  3525     04CA  2CCC               	goto	u1575
  3526     04CB  2CCD               	goto	u1576
  3527     04CC                     u1575:
  3528     04CC  02CF               	subwf	??___fladd+7,f
  3529     04CD                     u1576:
  3530     04CD  084C               	movf	??___fladd+4,w
  3531     04CE  07C8               	addwf	??___fladd,f
  3532     04CF  084D               	movf	??___fladd+5,w
  3533     04D0  1803               	skipnc
  3534     04D1  0F4D               	incfsz	??___fladd+5,w
  3535     04D2  2CD4               	goto	u1580
  3536     04D3  2CD5               	goto	u1581
  3537     04D4                     u1580:
  3538     04D4  07C9               	addwf	??___fladd+1,f
  3539     04D5                     u1581:
  3540     04D5  084E               	movf	??___fladd+6,w
  3541     04D6  1803               	skipnc
  3542     04D7  0F4E               	incfsz	??___fladd+6,w
  3543     04D8  2CDA               	goto	u1582
  3544     04D9  2CDB               	goto	u1583
  3545     04DA                     u1582:
  3546     04DA  07CA               	addwf	??___fladd+2,f
  3547     04DB                     u1583:
  3548     04DB  084F               	movf	??___fladd+7,w
  3549     04DC  1803               	skipnc
  3550     04DD  0A4F               	incf	??___fladd+7,w
  3551     04DE  07CB               	addwf	??___fladd+3,f
  3552     04DF  084B               	movf	??___fladd+3,w
  3553     04E0  00C3               	movwf	___fladd@b+3
  3554     04E1  084A               	movf	??___fladd+2,w
  3555     04E2  00C2               	movwf	___fladd@b+2
  3556     04E3  0849               	movf	??___fladd+1,w
  3557     04E4  00C1               	movwf	___fladd@b+1
  3558     04E5  0848               	movf	??___fladd,w
  3559     04E6  00C0               	movwf	___fladd@b
  3560     04E7                     l1430:
  3561     04E7  3080               	movlw	128
  3562     04E8  00C8               	movwf	??___fladd
  3563     04E9  0848               	movf	??___fladd,w
  3564     04EA  06D0               	xorwf	___fladd@signs,f
  3565     04EB  09D3               	comf	___fladd@grs,f
  3566     04EC  0AD3               	incf	___fladd@grs,f
  3567     04ED                     l1432:
  3568     04ED  0853               	movf	___fladd@grs,w
  3569     04EE  1D03               	btfss	3,2
  3570     04EF  2CF1               	goto	u1591
  3571     04F0  2CF2               	goto	u1590
  3572     04F1                     u1591:
  3573     04F1  2D0F               	goto	l542
  3574     04F2                     u1590:
  3575     04F2                     l1434:
  3576     04F2  3001               	movlw	1
  3577     04F3  07C0               	addwf	___fladd@b,f
  3578     04F4  3000               	movlw	0
  3579     04F5  1803               	skipnc
  3580     04F6  3001               	movlw	1
  3581     04F7  07C1               	addwf	___fladd@b+1,f
  3582     04F8  3000               	movlw	0
  3583     04F9  1803               	skipnc
  3584     04FA  3001               	movlw	1
  3585     04FB  07C2               	addwf	___fladd@b+2,f
  3586     04FC  3000               	movlw	0
  3587     04FD  1803               	skipnc
  3588     04FE  3001               	movlw	1
  3589     04FF  07C3               	addwf	___fladd@b+3,f
  3590     0500  2D0F               	goto	l542
  3591     0501                     l1436:
  3592     0501  0844               	movf	___fladd@a,w
  3593     0502  02C0               	subwf	___fladd@b,f
  3594     0503  0845               	movf	___fladd@a+1,w
  3595     0504  1C03               	skipc
  3596     0505  0F45               	incfsz	___fladd@a+1,w
  3597     0506  02C1               	subwf	___fladd@b+1,f
  3598     0507  0846               	movf	___fladd@a+2,w
  3599     0508  1C03               	skipc
  3600     0509  0F46               	incfsz	___fladd@a+2,w
  3601     050A  02C2               	subwf	___fladd@b+2,f
  3602     050B  0847               	movf	___fladd@a+3,w
  3603     050C  1C03               	skipc
  3604     050D  0F47               	incfsz	___fladd@a+3,w
  3605     050E  02C3               	subwf	___fladd@b+3,f
  3606     050F                     l542:
  3607     050F  0843               	movf	___fladd@b+3,w
  3608     0510  0442               	iorwf	___fladd@b+2,w
  3609     0511  0441               	iorwf	___fladd@b+1,w
  3610     0512  0440               	iorwf	___fladd@b,w
  3611     0513  1D03               	skipz
  3612     0514  2D16               	goto	u1601
  3613     0515  2D17               	goto	u1600
  3614     0516                     u1601:
  3615     0516  2D43               	goto	l1458
  3616     0517                     u1600:
  3617     0517                     l1438:
  3618     0517  0853               	movf	___fladd@grs,w
  3619     0518  1D03               	btfss	3,2
  3620     0519  2D1B               	goto	u1611
  3621     051A  2D1C               	goto	u1610
  3622     051B                     u1611:
  3623     051B  2D43               	goto	l1458
  3624     051C                     u1610:
  3625     051C                     l1440:
  3626     051C  3000               	movlw	0
  3627     051D  00C3               	movwf	?___fladd+3
  3628     051E  3000               	movlw	0
  3629     051F  00C2               	movwf	?___fladd+2
  3630     0520  3000               	movlw	0
  3631     0521  00C1               	movwf	?___fladd+1
  3632     0522  3000               	movlw	0
  3633     0523  00C0               	movwf	?___fladd
  3634     0524  2DBF               	goto	l534
  3635     0525                     l1444:
  3636     0525  3001               	movlw	1
  3637     0526  00C8               	movwf	??___fladd
  3638     0527                     u1625:
  3639     0527  1003               	clrc
  3640     0528  0DC0               	rlf	___fladd@b,f
  3641     0529  0DC1               	rlf	___fladd@b+1,f
  3642     052A  0DC2               	rlf	___fladd@b+2,f
  3643     052B  0DC3               	rlf	___fladd@b+3,f
  3644     052C  0BC8               	decfsz	??___fladd,f
  3645     052D  2D27               	goto	u1625
  3646     052E                     l1446:
  3647     052E  1FD3               	btfss	___fladd@grs,7
  3648     052F  2D31               	goto	u1631
  3649     0530  2D32               	goto	u1630
  3650     0531                     u1631:
  3651     0531  2D33               	goto	l546
  3652     0532                     u1630:
  3653     0532                     l1448:
  3654     0532  1440               	bsf	___fladd@b,0
  3655     0533                     l546:
  3656     0533  1C53               	btfss	___fladd@grs,0
  3657     0534  2D36               	goto	u1641
  3658     0535  2D37               	goto	u1640
  3659     0536                     u1641:
  3660     0536  2D3A               	goto	l1452
  3661     0537                     u1640:
  3662     0537                     l1450:
  3663     0537  1403               	setc
  3664     0538  0DD3               	rlf	___fladd@grs,f
  3665     0539  2D3C               	goto	l1454
  3666     053A                     l1452:
  3667     053A  1003               	clrc
  3668     053B  0DD3               	rlf	___fladd@grs,f
  3669     053C                     l1454:
  3670     053C  0852               	movf	___fladd@bexp,w
  3671     053D  1903               	btfsc	3,2
  3672     053E  2D40               	goto	u1651
  3673     053F  2D41               	goto	u1650
  3674     0540                     u1651:
  3675     0540  2D43               	goto	l1458
  3676     0541                     u1650:
  3677     0541                     l1456:
  3678     0541  3001               	movlw	1
  3679     0542  02D2               	subwf	___fladd@bexp,f
  3680     0543                     l1458:
  3681     0543  1FC2               	btfss	___fladd@b+2,7
  3682     0544  2D46               	goto	u1661
  3683     0545  2D47               	goto	u1660
  3684     0546                     u1661:
  3685     0546  2D25               	goto	l1444
  3686     0547                     u1660:
  3687     0547                     l1460:
  3688     0547  01D1               	clrf	___fladd@aexp
  3689     0548                     l1462:
  3690     0548  1FD3               	btfss	___fladd@grs,7
  3691     0549  2D4B               	goto	u1671
  3692     054A  2D4C               	goto	u1670
  3693     054B                     u1671:
  3694     054B  2D5A               	goto	l1470
  3695     054C                     u1670:
  3696     054C                     l1464:
  3697     054C  0853               	movf	___fladd@grs,w
  3698     054D  397F               	andlw	127
  3699     054E  1903               	btfsc	3,2
  3700     054F  2D51               	goto	u1681
  3701     0550  2D52               	goto	u1680
  3702     0551                     u1681:
  3703     0551  2D55               	goto	l552
  3704     0552                     u1680:
  3705     0552                     l1466:
  3706     0552  01D1               	clrf	___fladd@aexp
  3707     0553  0AD1               	incf	___fladd@aexp,f
  3708     0554  2D5A               	goto	l1470
  3709     0555                     l552:
  3710     0555  1C40               	btfss	___fladd@b,0
  3711     0556  2D58               	goto	u1691
  3712     0557  2D59               	goto	u1690
  3713     0558                     u1691:
  3714     0558  2D5A               	goto	l1470
  3715     0559                     u1690:
  3716     0559  2D52               	goto	l1466
  3717     055A                     l1470:
  3718     055A  0851               	movf	___fladd@aexp,w
  3719     055B  1903               	btfsc	3,2
  3720     055C  2D5E               	goto	u1701
  3721     055D  2D5F               	goto	u1700
  3722     055E                     u1701:
  3723     055E  2D93               	goto	l555
  3724     055F                     u1700:
  3725     055F                     l1472:
  3726     055F  3001               	movlw	1
  3727     0560  07C0               	addwf	___fladd@b,f
  3728     0561  3000               	movlw	0
  3729     0562  1803               	skipnc
  3730     0563  3001               	movlw	1
  3731     0564  07C1               	addwf	___fladd@b+1,f
  3732     0565  3000               	movlw	0
  3733     0566  1803               	skipnc
  3734     0567  3001               	movlw	1
  3735     0568  07C2               	addwf	___fladd@b+2,f
  3736     0569  3000               	movlw	0
  3737     056A  1803               	skipnc
  3738     056B  3001               	movlw	1
  3739     056C  07C3               	addwf	___fladd@b+3,f
  3740     056D                     l1474:
  3741     056D  1C43               	btfss	___fladd@b+3,0
  3742     056E  2D70               	goto	u1711
  3743     056F  2D71               	goto	u1710
  3744     0570                     u1711:
  3745     0570  2D93               	goto	l555
  3746     0571                     u1710:
  3747     0571                     l1476:
  3748     0571  0840               	movf	___fladd@b,w
  3749     0572  00C8               	movwf	??___fladd
  3750     0573  0841               	movf	___fladd@b+1,w
  3751     0574  00C9               	movwf	??___fladd+1
  3752     0575  0842               	movf	___fladd@b+2,w
  3753     0576  00CA               	movwf	??___fladd+2
  3754     0577  0843               	movf	___fladd@b+3,w
  3755     0578  00CB               	movwf	??___fladd+3
  3756     0579  3001               	movlw	1
  3757     057A  00CC               	movwf	??___fladd+4
  3758     057B                     u1725:
  3759     057B  0D4B               	rlf	??___fladd+3,w
  3760     057C  0CCB               	rrf	??___fladd+3,f
  3761     057D  0CCA               	rrf	??___fladd+2,f
  3762     057E  0CC9               	rrf	??___fladd+1,f
  3763     057F  0CC8               	rrf	??___fladd,f
  3764     0580                     u1720:
  3765     0580  0BCC               	decfsz	??___fladd+4,f
  3766     0581  2D7B               	goto	u1725
  3767     0582  084B               	movf	??___fladd+3,w
  3768     0583  00C3               	movwf	___fladd@b+3
  3769     0584  084A               	movf	??___fladd+2,w
  3770     0585  00C2               	movwf	___fladd@b+2
  3771     0586  0849               	movf	??___fladd+1,w
  3772     0587  00C1               	movwf	___fladd@b+1
  3773     0588  0848               	movf	??___fladd,w
  3774     0589  00C0               	movwf	___fladd@b
  3775     058A  0A52               	incf	___fladd@bexp,w
  3776     058B  1903               	btfsc	3,2
  3777     058C  2D8E               	goto	u1731
  3778     058D  2D8F               	goto	u1730
  3779     058E                     u1731:
  3780     058E  2D93               	goto	l555
  3781     058F                     u1730:
  3782     058F                     l1478:
  3783     058F  3001               	movlw	1
  3784     0590  00C8               	movwf	??___fladd
  3785     0591  0848               	movf	??___fladd,w
  3786     0592  07D2               	addwf	___fladd@bexp,f
  3787     0593                     l555:
  3788     0593  0A52               	incf	___fladd@bexp,w
  3789     0594  1903               	btfsc	3,2
  3790     0595  2D97               	goto	u1741
  3791     0596  2D98               	goto	u1740
  3792     0597                     u1741:
  3793     0597  2D9D               	goto	l1482
  3794     0598                     u1740:
  3795     0598                     l1480:
  3796     0598  0852               	movf	___fladd@bexp,w
  3797     0599  1D03               	btfss	3,2
  3798     059A  2D9C               	goto	u1751
  3799     059B  2D9D               	goto	u1750
  3800     059C                     u1751:
  3801     059C  2DAB               	goto	l1488
  3802     059D                     u1750:
  3803     059D                     l1482:
  3804     059D  3000               	movlw	0
  3805     059E  00C3               	movwf	___fladd@b+3
  3806     059F  3000               	movlw	0
  3807     05A0  00C2               	movwf	___fladd@b+2
  3808     05A1  3000               	movlw	0
  3809     05A2  00C1               	movwf	___fladd@b+1
  3810     05A3  3000               	movlw	0
  3811     05A4  00C0               	movwf	___fladd@b
  3812     05A5                     l1484:
  3813     05A5  0852               	movf	___fladd@bexp,w
  3814     05A6  1D03               	btfss	3,2
  3815     05A7  2DA9               	goto	u1761
  3816     05A8  2DAA               	goto	u1760
  3817     05A9                     u1761:
  3818     05A9  2DAB               	goto	l1488
  3819     05AA                     u1760:
  3820     05AA                     l1486:
  3821     05AA  01D0               	clrf	___fladd@signs
  3822     05AB                     l1488:
  3823     05AB  1C52               	btfss	___fladd@bexp,0
  3824     05AC  2DAE               	goto	u1771
  3825     05AD  2DAF               	goto	u1770
  3826     05AE                     u1771:
  3827     05AE  2DB1               	goto	l1492
  3828     05AF                     u1770:
  3829     05AF                     l1490:
  3830     05AF  17C2               	bsf	___fladd@b+2,7
  3831     05B0  2DB5               	goto	l563
  3832     05B1                     l1492:
  3833     05B1  307F               	movlw	127
  3834     05B2  00C8               	movwf	??___fladd
  3835     05B3  0848               	movf	??___fladd,w
  3836     05B4  05C2               	andwf	___fladd@b+2,f
  3837     05B5                     l563:
  3838     05B5  0852               	movf	___fladd@bexp,w
  3839     05B6  00C8               	movwf	??___fladd
  3840     05B7  1003               	clrc
  3841     05B8  0C48               	rrf	??___fladd,w
  3842     05B9  00C3               	movwf	___fladd@b+3
  3843     05BA                     l1494:
  3844     05BA  1FD0               	btfss	___fladd@signs,7
  3845     05BB  2DBD               	goto	u1781
  3846     05BC  2DBE               	goto	u1780
  3847     05BD                     u1781:
  3848     05BD  2DBF               	goto	l564
  3849     05BE                     u1780:
  3850     05BE                     l1496:
  3851     05BE  17C3               	bsf	___fladd@b+3,7
  3852     05BF                     l564:
  3853     05BF                     l534:
  3854     05BF  0008               	return
  3855     05C0                     __end_of___fladd:
  3856                           
  3857                           	psect	text13
  3858     07D2                     __ptext13:	
  3859 ;; *************** function _isr *****************
  3860 ;; Defined at:
  3861 ;;		line 58 in file "main.c"
  3862 ;; Parameters:    Size  Location     Type
  3863 ;;		None
  3864 ;; Auto vars:     Size  Location     Type
  3865 ;;		None
  3866 ;; Return value:  Size  Location     Type
  3867 ;;                  1    wreg      void 
  3868 ;; Registers used:
  3869 ;;		wreg
  3870 ;; Tracked objects:
  3871 ;;		On entry : 0/0
  3872 ;;		On exit  : 0/0
  3873 ;;		Unchanged: 0/0
  3874 ;; Data sizes:     COMMON   BANK0   BANK1   BANK3   BANK2
  3875 ;;      Params:         0       0       0       0       0
  3876 ;;      Locals:         0       0       0       0       0
  3877 ;;      Temps:          2       0       0       0       0
  3878 ;;      Totals:         2       0       0       0       0
  3879 ;;Total ram usage:        2 bytes
  3880 ;; Hardware stack levels used: 1
  3881 ;; This function calls:
  3882 ;;		Nothing
  3883 ;; This function is called by:
  3884 ;;		Interrupt level 1
  3885 ;; This function uses a non-reentrant model
  3886 ;;
  3887                           
  3888     07D2                     _isr:	
  3889                           ;psect for function _isr
  3890                           
  3891     07D2                     i1l1730:
  3892                           
  3893                           ;main.c: 59:     if (INTCONbits.T0IF){
  3894     07D2  1D0B               	btfss	11,2	;volatile
  3895     07D3  2FD5               	goto	u233_21
  3896     07D4  2FD6               	goto	u233_20
  3897     07D5                     u233_21:
  3898     07D5  2FF8               	goto	i1l98
  3899     07D6                     u233_20:
  3900     07D6                     i1l1732:
  3901                           
  3902                           ;main.c: 60:         cont++;
  3903     07D6  3001               	movlw	1
  3904     07D7  1283               	bcf	3,5	;RP0=0, select bank0
  3905     07D8  1303               	bcf	3,6	;RP1=0, select bank0
  3906     07D9  07E8               	addwf	_cont,f
  3907     07DA  1803               	skipnc
  3908     07DB  0AE9               	incf	_cont+1,f
  3909     07DC  3000               	movlw	0
  3910     07DD  07E9               	addwf	_cont+1,f
  3911                           
  3912                           ;main.c: 62:         if (cont <= PWM3){
  3913     07DE  0869               	movf	_cont+1,w
  3914     07DF  1683               	bsf	3,5	;RP0=1, select bank1
  3915     07E0  1303               	bcf	3,6	;RP1=0, select bank1
  3916     07E1  0221               	subwf	(_PWM3+1)^(0+128),w
  3917     07E2  1D03               	skipz
  3918     07E3  2FEA               	goto	u234_25
  3919     07E4  1283               	bcf	3,5	;RP0=0, select bank0
  3920     07E5  1303               	bcf	3,6	;RP1=0, select bank0
  3921     07E6  0868               	movf	_cont,w
  3922     07E7  1683               	bsf	3,5	;RP0=1, select bank1
  3923     07E8  1303               	bcf	3,6	;RP1=0, select bank1
  3924     07E9  0220               	subwf	_PWM3^(0+128),w
  3925     07EA                     u234_25:
  3926     07EA  1C03               	skipc
  3927     07EB  2FED               	goto	u234_21
  3928     07EC  2FEE               	goto	u234_20
  3929     07ED                     u234_21:
  3930     07ED  2FF2               	goto	i1l96
  3931     07EE                     u234_20:
  3932     07EE                     i1l1734:
  3933                           
  3934                           ;main.c: 63:             PORTCbits.RC3 = 1;
  3935     07EE  1283               	bcf	3,5	;RP0=0, select bank0
  3936     07EF  1303               	bcf	3,6	;RP1=0, select bank0
  3937     07F0  1587               	bsf	7,3	;volatile
  3938                           
  3939                           ;main.c: 64:         }
  3940     07F1  2FF5               	goto	i1l1736
  3941     07F2                     i1l96:	
  3942                           ;main.c: 65:         else {
  3943                           
  3944                           
  3945                           ;main.c: 66:             PORTCbits.RC3 = 0;
  3946     07F2  1283               	bcf	3,5	;RP0=0, select bank0
  3947     07F3  1303               	bcf	3,6	;RP1=0, select bank0
  3948     07F4  1187               	bcf	7,3	;volatile
  3949     07F5                     i1l1736:
  3950                           
  3951                           ;main.c: 68:         TMR0 = 254;
  3952     07F5  30FE               	movlw	254
  3953     07F6  0081               	movwf	1	;volatile
  3954     07F7                     i1l1738:
  3955                           
  3956                           ;main.c: 69:         INTCONbits.T0IF = 0;
  3957     07F7  110B               	bcf	11,2	;volatile
  3958     07F8                     i1l98:
  3959     07F8  0871               	movf	??_isr+1,w
  3960     07F9  008A               	movwf	10
  3961     07FA  0E70               	swapf	??_isr,w
  3962     07FB  0083               	movwf	3
  3963     07FC  0EFE               	swapf	btemp,f
  3964     07FD  0E7E               	swapf	btemp,w
  3965     07FE  0009               	retfie
  3966     07FF                     __end_of_isr:
  3967     007E                     btemp	set	126	;btemp
  3968     007E                     wtemp0	set	126
  3969                           
  3970                           	psect	intentry
  3971     0004                     __pintentry:	
  3972                           ;incstack = 0
  3973                           ; Regs used in _isr: [wreg]
  3974                           
  3975     0004                     interrupt_function:
  3976     007E                     saved_w	set	btemp
  3977     0004  00FE               	movwf	btemp
  3978     0005  0E03               	swapf	3,w
  3979     0006  00F0               	movwf	??_isr
  3980     0007  080A               	movf	10,w
  3981     0008  00F1               	movwf	??_isr+1
  3982     0009  120A  118A  2FD2   	ljmp	_isr
  3983                           
  3984                           	psect	idloc
  3985                           
  3986                           ;Config register IDLOC0 @ 0x2000
  3987                           ;	unspecified, using default values
  3988     2000                     	org	8192
  3989     2000  3FFF               	dw	16383
  3990                           
  3991                           ;Config register IDLOC1 @ 0x2001
  3992                           ;	unspecified, using default values
  3993     2001                     	org	8193
  3994     2001  3FFF               	dw	16383
  3995                           
  3996                           ;Config register IDLOC2 @ 0x2002
  3997                           ;	unspecified, using default values
  3998     2002                     	org	8194
  3999     2002  3FFF               	dw	16383
  4000                           
  4001                           ;Config register IDLOC3 @ 0x2003
  4002                           ;	unspecified, using default values
  4003     2003                     	org	8195
  4004     2003  3FFF               	dw	16383
  4005                           
  4006                           	psect	config
  4007                           
  4008                           ;Config register CONFIG1 @ 0x2007
  4009                           ;	Oscillator Selection bits
  4010                           ;	FOSC = INTRC_NOCLKOUT, INTOSCIO oscillator: I/O function on RA6/OSC2/CLKOUT pin, I/O f
      +                          unction on RA7/OSC1/CLKIN
  4011                           ;	Watchdog Timer Enable bit
  4012                           ;	WDTE = OFF, WDT disabled and can be enabled by SWDTEN bit of the WDTCON register
  4013                           ;	Power-up Timer Enable bit
  4014                           ;	PWRTE = OFF, PWRT disabled
  4015                           ;	RE3/MCLR pin function select bit
  4016                           ;	MCLRE = OFF, RE3/MCLR pin function is digital input, MCLR internally tied to VDD
  4017                           ;	Code Protection bit
  4018                           ;	CP = OFF, Program memory code protection is disabled
  4019                           ;	Data Code Protection bit
  4020                           ;	CPD = OFF, Data memory code protection is disabled
  4021                           ;	Brown Out Reset Selection bits
  4022                           ;	BOREN = OFF, BOR disabled
  4023                           ;	Internal External Switchover bit
  4024                           ;	IESO = OFF, Internal/External Switchover mode is disabled
  4025                           ;	Fail-Safe Clock Monitor Enabled bit
  4026                           ;	FCMEN = OFF, Fail-Safe Clock Monitor is disabled
  4027                           ;	Low Voltage Programming Enable bit
  4028                           ;	LVP = OFF, RB3 pin has digital I/O, HV on MCLR must be used for programming
  4029                           ;	In-Circuit Debugger Mode bit
  4030                           ;	DEBUG = 0x1, unprogramme  4031     2007                     	org	8199
  4032     2007  20D4               	dw	8404
  4033                           
  4034                           ;Config register CONFIG2 @ 0x2008
  4035                           ;	Brown-out Reset Selection bit
  4036                           ;	BOR4V = BOR40V, Brown-out Reset set to 4.0V
  4037                           ;	Flash Program Memory Self Write Enable bits
  4038                           ;	WRT = OFF, Write protection off
  4039     2008                     	org	8200
  4040     2008  3FFF               	dw	16383

Data Sizes:
    Strings     0
    Constant    0
    Data        0
    BSS         12
    Persistent  0
    Stack       0

Auto Spaces:
    Space          Size  Autos    Used
    COMMON           14     10      12
    BANK0            80     72      80
    BANK1            80      0       2
    BANK3            96      0       0
    BANK2            96      0       0

Pointer List with Targets:

    None.

Critical Paths under _main in COMMON

    _mapeo->___xxtofl
    ___fltol->___xxtofl
    ___flmul->___xxtofl
    ___fladd->___xxtofl

Critical Paths under _isr in COMMON

    None.

Critical Paths under _main in BANK0

    _main->_mapeo
    _mapeo->___fltol
    ___fltol->___fladd
    ___flmul->___xxtofl
    ___fladd->___flmul

Critical Paths under _isr in BANK0

    None.

Critical Paths under _main in BANK1

    None.

Critical Paths under _isr in BANK1

    None.

Critical Paths under _main in BANK3

    None.

Critical Paths under _isr in BANK3

    None.

Critical Paths under _main in BANK2

    None.

Critical Paths under _isr in BANK2

    None.

Call Graph Tables:

 ---------------------------------------------------------------------------------
 (Depth) Function   	        Calls       Base Space   Used Autos Params    Refs
 ---------------------------------------------------------------------------------
 (0) _main                                                 5     5      0    6318
                                             67 BANK0      5     5      0
                              _mapeo
                              _setup
                        _setupINTOSC
                          _setupTMR0
                          _setup_ADC
                         _setup_PWM1
                         _setup_PWM2
 ---------------------------------------------------------------------------------
 (1) _setup_PWM2                                           0     0      0       0
 ---------------------------------------------------------------------------------
 (1) _setup_PWM1                                           0     0      0       0
 ---------------------------------------------------------------------------------
 (1) _setup_ADC                                            1     1      0       0
                                              2 COMMON     1     1      0
 ---------------------------------------------------------------------------------
 (1) _setupTMR0                                            0     0      0       0
 ---------------------------------------------------------------------------------
 (1) _setupINTOSC                                          0     0      0       0
 ---------------------------------------------------------------------------------
 (1) _setup                                                0     0      0       0
 ---------------------------------------------------------------------------------
 (1) _mapeo                                                5     5      0    6318
                                             62 BANK0      5     5      0
                            ___fladd
                            ___flmul
                            ___fltol
                           ___xxtofl
 ---------------------------------------------------------------------------------
 (2) ___xxtofl                                            14    10      4     398
                                              2 COMMON     8     4      4
                                              0 BANK0      6     6      0
 ---------------------------------------------------------------------------------
 (2) ___fltol                                             10     6      4     305
                                             52 BANK0     10     6      4
                            ___fladd (ARG)
                            ___flmul (ARG)
                           ___xxtofl (ARG)
 ---------------------------------------------------------------------------------
 (2) ___flmul                                             26    18      8    3353
                                              6 BANK0     26    18      8
                          __Umul8_16
                           ___xxtofl (ARG)
 ---------------------------------------------------------------------------------
 (3) __Umul8_16                                            9     7      2     980
                                              2 COMMON     4     2      2
                                              0 BANK0      5     5      0
 ---------------------------------------------------------------------------------
 (2) ___fladd                                             20    12      8    2262
                                             32 BANK0     20    12      8
                            ___flmul (ARG)
                           ___xxtofl (ARG)
 ---------------------------------------------------------------------------------
 Estimated maximum stack depth 3
 ---------------------------------------------------------------------------------
 (Depth) Function   	        Calls       Base Space   Used Autos Params    Refs
 ---------------------------------------------------------------------------------
 (4) _isr                                                  2     2      0       0
                                              0 COMMON     2     2      0
 ---------------------------------------------------------------------------------
 Estimated maximum stack depth 4
 ---------------------------------------------------------------------------------

 Call Graph Graphs:

 _main (ROOT)
   _mapeo
     ___fladd
       ___flmul (ARG)
         __Umul8_16
         ___xxtofl (ARG)
       ___xxtofl (ARG)
     ___flmul
     ___fltol
       ___fladd (ARG)
       ___flmul (ARG)
       ___xxtofl (ARG)
     ___xxtofl
   _setup
   _setupINTOSC
   _setupTMR0
   _setup_ADC
   _setup_PWM1
   _setup_PWM2

 _isr (ROOT)

 Address spaces:
Name               Size   Autos  Total    Cost      Usage
BITCOMMON            E      0       0       0        0.0%
EEDATA             100      0       0       0        0.0%
NULL                 0      0       0       0        0.0%
CODE                 0      0       0       0        0.0%
COMMON               E      A       C       1       85.7%
BITSFR0              0      0       0       1        0.0%
SFR0                 0      0       0       1        0.0%
BITSFR1              0      0       0       2        0.0%
SFR1                 0      0       0       2        0.0%
STACK                0      0       0       2        0.0%
ABS                  0      0      5E       3        0.0%
BITBANK0            50      0       0       4        0.0%
BITSFR3              0      0       0       4        0.0%
SFR3                 0      0       0       4        0.0%
BANK0               50     48      50       5      100.0%
BITSFR2              0      0       0       5        0.0%
SFR2                 0      0       0       5        0.0%
BITBANK1            50      0       0       6        0.0%
BANK1               50      0       2       7        2.5%
BITBANK3            60      0       0       8        0.0%
BANK3               60      0       0       9        0.0%
BITBANK2            60      0       0      10        0.0%
BANK2               60      0       0      11        0.0%
DATA                 0      0      5E      12        0.0%


Microchip Technology PIC Macro Assembler V2.40 build 20220703182018 
Symbol Table                                                                                   Mon Oct 24 22:09:54 2022

    __Umul8_16@word_mpld 0022                      l110 06E7                      l112 06EB  
                    l104 069F                      l121 0F15                      l130 0F49  
                    l106 06A3                      l107 06BA                      l124 07D1  
                    l133 0F57                      l109 06BE                      l118 0F24  
                    l142 0F34                      l127 0F42                      l135 0F5B  
                    l136 0F5E                      l129 0F46                      l139 07A4  
                    l421 0FEA                      l414 0FFF                      l424 0FFF  
                    l521 03C3                      l525 0446                      l542 050F  
                    l534 05BF                      l527 041F                      l623 02D7  
                    l552 0555                      l617 0367                      l546 0533  
                    l563 05B5                      l555 0593                      l564 05BF  
                    l636 0F75                      l629 035B                      l661 05E4  
                    l638 0F87                      l663 0679                      l674 0643  
                    l675 064F                      l667 0627                      _PR2 0092  
                    _isr 07D2             ___flmul@aexp 0034             ___flmul@bexp 0039  
           ___flmul@sign 0033             ___flmul@temp 003E             ___flmul@prod 003A  
           ___fltol@exp1 005D                     l1300 0FEF                     l1310 0375  
                   l1302 0FF4                     l1400 043E                     l1320 0389  
                   l1312 0376                     l1304 0368                     l1410 046F  
                   l1402 044A                     l1330 039D                     l1314 037B  
                   l1322 038B                     l1306 036D                     l1420 0484  
                   l1412 0473                     l1404 044F                     l1340 03B0  
                   l1332 03A1                     l1324 0393                     l1316 0380  
                   l1308 0371                     l1430 04E7                     l1422 0485  
                   l1414 0477                     l1350 03CD                     l1342 03B8  
                   l1334 03A5                     l1326 0396                     l1318 0388  
                   l1270 0F93                     l1440 051C                     l1432 04ED  
                   l1424 048E                     l1416 047E                     l1408 0458  
                   l1360 03D9                     l1352 03D1                     l1344 03B9  
                   l1336 03A6                     l1328 039C                     l1280 0FB8  
                   l1450 0537                     l1434 04F2                     l1418 0480  
                   l1426 0493                     l1370 03E3                     l1362 03DB  
                   l1354 03D3                     l1338 03AB                     l1346 03BB  
                   l1290 0FC6                     l1282 0FBA                     l1274 0F9C  
                   l1452 053A                     l1444 0525                     l1428 04A9  
                   l1436 0501                     l1460 0547                     l1380 03ED  
                   l1372 03E5                     l1364 03DD                     l1356 03D5  
                   l1348 03C9                     l1284 0FBE                     l1292 0FD8  
                   l1276 0FAF                     l1268 0F88                     l1700 0F3E  
                   l1470 055A                     l1462 0548                     l1454 053C  
                   l1446 052E                     l1438 0517                     l1390 042A  
                   l1374 03E7                     l1366 03DF                     l1358 03D7  
                   l1382 03EF                     l1278 0FB0                     l1702 0F3F  
                   l1710 0F53                     l1480 0598                     l1472 055F  
                   l1464 054C                     l1456 0541                     l1448 0532  
                   l1392 042C                     l1384 03F0                     l1376 03E9  
                   l1368 03E1                     l1800 003B                     l1640 05C8  
                   l1720 0F30                     l1704 0F41                     l1712 0F54  
                   l1490 05AF                     l1482 059D                     l1474 056D  
                   l1466 0552                     l1458 0543                     l1394 0430  
                   l1386 0407                     l1378 03EB                     l1810 0056  
                   l1802 0043                     l1298 0FDF                     l1650 05F5  
                   l1642 05CC                     l1714 0F56                     l1706 0F4A  
                   l1492 05B1                     l1484 05A5                     l1476 0571  
                   l1396 0431                     l1388 0423                     l1900 02EF  
                   l1820 006D                     l1812 005A                     l1804 0045  
                   l1660 061E                     l1652 05F8                     l1644 05DC  
                   l1716 0F25                     l1708 0F4D                     l1494 05BA  
                   l1486 05AA                     l1478 058F                     l1398 043A  
                   l1910 032A                     l1902 02F3                     l1822 006F  
                   l1814 005B                     l1806 004D                     l1670 0651  
                   l1662 062E                     l1654 0605                     l1646 05EC  
                   l1638 05C3                     l1718 0F2C                     l1496 05BE  
                   l1488 05AB                     l1920 0355                     l1912 0339  
                   l1904 030C                     l1840 00DC                     l1832 008A  
                   l1824 0077                     l1816 0060                     l1808 0052  
                   l1672 0667                     l1664 0639                     l1656 060C  
                   l1922 0356                     l1914 0343                     l1906 0312  
                   l1850 0155                     l1842 0106                     l1834 0098  
                   l1826 007C                     l1818 0065                     l1674 066C  
                   l1666 063D                     l1658 0610                     l1930 073F  
                   l1682 0F16                     l1690 0F14                     l1780 0F6F  
                   l1924 035F                     l1916 0345                     l1908 031F  
                   l1860 01D1                     l1852 0172                     l1844 0122  
                   l1836 00A5                     l1828 0081                     l1676 0670  
                   l1668 0647                     l1932 078E                     l1684 0F21  
                   l1692 07A5                     l1940 069C                     l1782 0F7E  
                   l1774 0F62                     l1918 0351                     l1870 0283  
                   l1862 01FC                     l1854 0180                     l1846 013E  
                   l1838 00C0                     l1790 0028                     l1678 0671  
                   l1934 0794                     l1686 0F23                     l1694 07CC  
                   l1950 06B5                     l1942 069E                     l1784 0F83  
                   l1776 0F64                     l1880 02A8                     l1872 028C  
                   l1864 020A                     l1856 019D                     l1848 0147  
                   l1792 002C                     l1928 071E                     l1688 0F0E  
                   l1696 0F35                     l1960 06E0                     l1952 06B9  
                   l1944 06A4                     l1936 067A                     l1778 0F6B  
                   l1890 02C0                     l1882 02B1                     l1874 029A  
                   l1866 0235                     l1858 01B4                     l1794 0030  
                   l1698 0F38                     l1962 06E2                     l1954 06BF  
                   l1946 06A9                     l1938 0698                     l1892 02D4  
                   l1876 02A3                     l1884 02B7                     l1868 025B  
                   l1796 0031                     l1788 0023                     l1964 06E6  
                   l1956 06C4                     l1948 06B3                     l1886 02BB  
                   l1878 02A7                     l1798 0036                     l1966 06EC  
                   l1958 06CF                     l1896 02DC                     l1888 02BC  
                   l1968 0713                     l1898 02E1                     _ADIF 0066  
                   ?_isr 0070                     u1310 0FEF                     u1230 0F93  
                   u1311 0FEE                     u1231 0F92                     u1400 03C9  
                   u1320 0FF4                     u1240 0FAA                     u2200 060B  
                   u1401 03C8                     u1321 0FF3                     u1305 0FE1  
                   u2201 060A                     u1410 03CD                     u1330 0375  
                   u1250 0FBE                     u1411 03CC                     u1331 0374  
                   u1251 0FBD                     u1500 044F                     u1420 0407  
                   u1340 037B                     u1260 0FC5                     u2220 062D  
                   u2300 0F46                     u1501 044E                     u1421 0406  
                   u1341 037A                     u1261 0FC4                     u1245 0FA5  
                   u2221 062C                     u2301 0F45                     u1430 0412  
                   u1350 0380                     u2310 0F5B                     u1511 0461  
                   u1431 0410                     u1351 037F                     u2215 061F  
                   u2311 0F5A                     u1600 0517                     u1520 0473  
                   u1512 0468                     u1440 0413                     u1360 039C  
                   u1280 0FD7                     u2240 063D                     u2160 05C8  
                   u1601 0516                     u1521 0472                     u1513 046F  
                   u1425 0403                     u1361 039B                     u1281 0FD6  
                   u2241 063C                     u2161 05C7                     u1610 051C  
                   u1530 0477                     u1450 0423                     u1370 03A5  
                   u2410 0F83                     u1290 0FDE                     u2250 0643  
                   u2170 05CC                     u1611 051B                     u1531 0476  
                   u1451 0422                     u1371 03A4                     u2411 0F82  
                   u1291 0FDD                     u1275 0FC7                     u2251 0642  
                   u2235 0632                     u2171 05CB                     u1700 055F  
                   u1540 0484                     u1460 0430                     u1380 03AB  
                   u2420 0030                     u2260 0647                     u2180 05EC  
                   u1701 055E                     u1541 0483                     u1461 042F  
                   u1381 03AA                     u2405 0F76                     u2501 00CE  
                   u2421 002F                     u2261 0646                     u2181 05EB  
                   u1710 0571                     u1630 0532                     u1390 03B0  
                   u2502 00D5                     u2430 0036                     u2270 065C  
                   u1711 0570                     u1631 0531                     u1391 03AF  
                   u2511 00EA                     u2503 00DC                     u2431 0035  
                   u1720 0580                     u1640 0537                     u1560 04A9  
                   u1480 0446                     u2512 00F1                     u2440 003B  
                   u2280 066C                     u1641 0536                     u1625 0527  
                   u1561 04A8                     u1481 0445                     u2601 0219  
                   u2521 0114                     u2513 00F8                     u2441 003A  
                   u2281 066B                     u1730 058F                     u1650 0541  
                   u1490 044A                     u2610 0241                     u2602 0220  
                   u2522 011B                     u2450 005A                     u2290 0670  
                   u1731 058E                     u1651 0540                     u1571 04C0  
                   u1563 04A5                     u1555 0487                     u1491 0449  
                   u1475 0433                     u2603 0227                     u2531 0130  
                   u2523 0122                     u2451 0059                     u2291 066F  
                   u2275 0657                     u2195 05FD                     u1740 0598  
                   u1660 0547                     u1580 04D4                     u1572 04C1  
                   u2700 02C0                     u2532 0137                     u2460 0060  
                   u1741 0597                     u1725 057B                     u1661 0546  
                   u1581 04D5                     u1573 04C6                     u2701 02BF  
                   u2621 024D                     u2533 013E                     u2461 005F  
                   u1750 059D                     u1670 054C                     u1590 04F2  
                   u1582 04DA                     u1574 04C7                     u2390 0F6F  
                   u2710 02D4                     u2630 0269                     u2622 0254  
                   u2470 0065                     u1751 059C                     u1671 054B  
                   u1591 04F1                     u1583 04DB                     u1575 04CC  
                   u2391 0F6E                     u2711 02D3                     u2623 025B  
                   u2615 023C                     u2551 0164                     u2471 0064  
                   u1760 05AA                     u1680 0552                     u1576 04CD  
                   u2720 02DB                     u2552 016B                     u2480 007C  
                   u2800 06A3                     u1761 05A9                     u1681 0551  
                   u2721 02DA                     u2641 0275                     u2561 018F  
                   u2553 0172                     u2545 0140                     u2481 007B  
                   u2801 06A2                     u1770 05AF                     u1690 0559  
                   u2730 02E1                     u2642 027C                     u2562 0196  
                   u2490 0081                     u2810 06BE                     u1771 05AE  
                   u1691 0558                     u2731 02E0                     u2643 0283  
                   u2635 0264                     u2563 019D                     u2491 0080  
                   u2811 06BD                     u1780 05BE                     u2740 02F3  
                   u2820 06EB                     u1781 05BD                     u2741 02F2  
                   u2581 01C3                     u2821 06EA                     u2750 0302  
                   u2670 02A7                     u2582 01CA                     u2671 02A6  
                   u2655 0285                     u2591 01EE                     u2583 01D1  
                   u2575 019F                     u2760 031F                     u2592 01F5  
                   u2761 031E                     u2665 029C                     u2593 01FC  
                   u2770 0339                     u2690 02BB                     u2771 0338  
                   u2755 02FD                     u2691 02BA                     u2835 06F3  
                   u2780 0355                     u2781 0354                     u2765 031B  
                   u2685 02AA                     u2775 0335                     u2847 0717  
                   u2857 07CE                     u2795 0725                     i1l96 07F2  
                   i1l98 07F8                     _TMR0 0001                     _PWM3 00A0  
                   _vPWM 006C                     _cont 0068                     _main 067A  
                   btemp 007E                     start 000C                    ??_isr 0070  
          ___fltol@sign1 005C          __end_of___fladd 05C0                    ?_main 0070  
        __end_of___flmul 0368          __end_of___fltol 1000                    _PORTB 0006  
                  _PORTC 0007                    _PORTD 0008                    _TRISB 0086  
                  _TRISC 0087                    _TRISD 0088                    _vPWMh 006A  
                  _vPWMl 007A                    _mapeo 071E                    _setup 0F16  
                  pclath 000A                    status 0003                    wtemp0 007E  
        __initialization 000F             __end_of_main 071E                   ??_main 0063  
                 ?_mapeo 0070                   _ADRESH 001E                   _ADRESL 009E  
                 _CCPR1L 0015                   _CCPR2L 001B                   ?_setup 0070  
                 _ANSELH 0189                   i1l1730 07D2                   i1l1732 07D6  
                 i1l1734 07EE                   i1l1736 07F5                   i1l1738 07F7  
                 u233_20 07D6                   u233_21 07D5                   u234_20 07EE  
                 u234_21 07ED                   u234_25 07EA                   _TMR2IF 0061  
                 _TMR2ON 0092         __end_of___xxtofl 067A                ??___fladd 0048  
              ??___flmul 002E                ??___fltol 0058                   _valADC 006E  
           ?_setupINTOSC 0070                   saved_w 007E             ___xxtofl@arg 0022  
           ___xxtofl@exp 0021             ___xxtofl@val 0072  __end_of__initialization 001F  
             ___fltol@f1 0054           __pcstackCOMMON 0070            __end_of_mapeo 07A5  
          __end_of_setup 0F25           _OPTION_REGbits 0081                  ??_mapeo 005E  
                ??_setup 0072               __pbssBANK0 0068               __pbssBANK1 00A0  
      __end_of__Umul8_16 0F88               __pmaintext 067A               __pintentry 0004  
                _CCP1CON 0017                  _CCP2CON 001D                ?___xxtofl 0072  
                ___fladd 0368                  ___flmul 0023                  ___fltol 0F88  
              _ANSELbits 0188                  __ptext1 0F4A                  __ptext2 0F35  
                __ptext3 07A5                  __ptext4 0F25                  __ptext5 0F0E  
                __ptext6 0F16                  __ptext7 071E                  __ptext8 05C0  
                __ptext9 0F88                _T2CONbits 0012               ??___xxtofl 0076  
   end_of_initialization 001F        __end_of_setupTMR0 0F35        __end_of_setup_ADC 07D2  
             _setup_PWM1 0F35               _setup_PWM2 0F4A                _PORTAbits 0005  
              _PORTCbits 0007              ___fladd@grs 0053            ___xxtofl@sign 0020  
              _TRISAbits 0085                _TRISCbits 0087              ___flmul@grs 0035  
            _CCP1CONbits 0017              _CCP2CONbits 001D      start_initialization 000F  
            __end_of_isr 07FF                __Umul8_16 0F5F              ?_setup_PWM1 0070  
            ?_setup_PWM2 0070                ___fladd@a 0044                ___fladd@b 0040  
              ___flmul@a 002A                ___flmul@b 0026              __pbssCOMMON 007A  
              ___latbits 0002            __pcstackBANK0 0020                 ?___fladd 0040  
               ?___flmul 0026                 ?___fltol 0054               ?__Umul8_16 0072  
      interrupt_function 0004                _setupTMR0 0F25                _setup_ADC 07A5  
             _ADCON0bits 001F               _ADCON1bits 009F            ??_setupINTOSC 0072  
             ?_setupTMR0 0070               ?_setup_ADC 0070              ??__Umul8_16 0074  
               ___xxtofl 05C0                 __ptext10 0023                 __ptext11 0F5F  
               __ptext12 0368                 __ptext13 07D2      __end_of_setupINTOSC 0F16  
           ??_setup_PWM1 0072             ??_setup_PWM2 0072               _INTCONbits 000B  
               intlevel1 0000       __end_of_setup_PWM1 0F4A       __end_of_setup_PWM2 0F5F  
             _OSCCONbits 008F              ??_setupTMR0 0072              ??_setup_ADC 0072  
 __Umul8_16@multiplicand 0072              _setupINTOSC 0F0E            ___fladd@signs 0050  
           ___fladd@aexp 0051             ___fladd@bexp 0052     __Umul8_16@multiplier 0024  
      __Umul8_16@product 0020  
